

HI-TECH Software PIC LITE Macro Assembler V1.00 build 12136 
                                                                                               Fri Aug 03 15:28:58 2012

HI-TECH Software Omniscient Code Generator (Lite mode) build 12136
     1  0000                     opt subtitle "HI-TECH Software Omniscient Code Generator (Lite mode) build 12136"
     2                           
     3                           opt pagewidth 120
     4                           
     5                           	opt lm
     6                           
     7                           	processor	16F876A
     8                           clrc	macro
     9                           	bcf	3,0
    10  0000                     	endm
    11                           clrz	macro
    12                           	bcf	3,2
    13  0000                     	endm
    14                           setc	macro
    15                           	bsf	3,0
    16  0000                     	endm
    17                           setz	macro
    18                           	bsf	3,2
    19  0000                     	endm
    20                           skipc	macro
    21                           	btfss	3,0
    22  0000                     	endm
    23                           skipz	macro
    24                           	btfss	3,2
    25  0000                     	endm
    26                           skipnc	macro
    27                           	btfsc	3,0
    28  0000                     	endm
    29                           skipnz	macro
    30                           	btfsc	3,2
    31  0000                     	endm
    32  0000                     indf	equ	0
    33  0000                     indf0	equ	0
    34  0002                     pc	equ	2
    35  0002                     pcl	equ	2
    36  0003                     status	equ	3
    37  0004                     fsr	equ	4
    38  0004                     fsr0	equ	4
    39  0001                     c	equ	1
    40  0000                     z	equ	0
    41  000A                     pclath	equ	10
    42                           # 16 "main.c"
    43                           psect config,class=CONFIG,delta=2 ;# 
    44                           # 16 "main.c"
    45  2007  FF32               dw 0xFFFE & 0xFFFB & 0xFFF7 & 0xFFBF & 0xFF7F ;# 
    46                           	FNCALL	_main,_initialzie
    47                           	FNCALL	_main,_ucNrf24l01ReceivePacket
    48                           	FNCALL	_main,_LCD_goto
    49                           	FNCALL	_main,_LCD_putstr
    50                           	FNCALL	_main,_LCD_putchar
    51                           	FNCALL	_main,_keypad_wait
    52                           	FNCALL	_main,_vNrf24l01EnableTx
    53                           	FNCALL	_main,_ucNrf24l01TransmitPacket
    54                           	FNCALL	_main,_vNrf24l01EnableRx
    55                           	FNCALL	_main,_keypad_read
    56                           	FNCALL	_keypad_wait,_keypad_read
    57                           	FNCALL	_LCD_putstr,_LCD_senddata
    58                           	FNCALL	_LCD_putchar,_LCD_senddata
    59                           	FNCALL	_LCD_senddata,_LCD_4bitsend
    60                           	FNCALL	_LCD_goto,_LCD_command
    61                           	FNCALL	_initialzie,_vInitSpi
    62                           	FNCALL	_initialzie,_vInitNrf24l01
    63                           	FNCALL	_initialzie,_LCD_initialize
    64                           	FNCALL	_LCD_initialize,_LCD_command
    65                           	FNCALL	_LCD_command,_LCD_4bitsend
    66                           	FNCALL	_ucNrf24l01ReceivePacket,_ucReadNrf24l01FifoStatus
    67                           	FNCALL	_ucNrf24l01ReceivePacket,_vReadNrf24l01
    68                           	FNCALL	_ucNrf24l01ReceivePacket,_ucReadNrf24l01Status
    69                           	FNCALL	_ucNrf24l01ReceivePacket,_vWriteNrf24l01
    70                           	FNCALL	_vNrf24l01EnableTx,_vReadNrf24l01
    71                           	FNCALL	_vNrf24l01EnableTx,_vWriteNrf24l01
    72                           	FNCALL	_ucNrf24l01TransmitPacket,_vWriteNrf24l01
    73                           	FNCALL	_ucNrf24l01TransmitPacket,_ucReadNrf24l01Status
    74                           	FNCALL	_vNrf24l01EnableRx,_vReadNrf24l01
    75                           	FNCALL	_vNrf24l01EnableRx,_vWriteNrf24l01
    76                           	FNCALL	_vInitNrf24l01,_vWriteNrf24l01
    77                           	FNCALL	_vWriteNrf24l01,_ucTransferSpi
    78                           	FNCALL	_ucReadNrf24l01Status,_ucTransferSpi
    79                           	FNCALL	_ucReadNrf24l01FifoStatus,_vReadNrf24l01
    80                           	FNCALL	_vReadNrf24l01,_ucTransferSpi
    81                           	FNROOT	_main
    82                           	global	_PIR1bits
    83  000C                     _PIR1bits	set	0xC
    84                           	global	_PORTA
    85  0005                     _PORTA	set	0x5
    86                           	global	_PORTB
    87  0006                     _PORTB	set	0x6
    88                           	global	_PORTBbits
    89  0006                     _PORTBbits	set	0x6
    90                           	global	_PORTC
    91  0007                     _PORTC	set	0x7
    92                           	global	_PORTCbits
    93  0007                     _PORTCbits	set	0x7
    94                           	global	_SSPBUF
    95  0013                     _SSPBUF	set	0x13
    96                           	global	_SSPCONbits
    97  0014                     _SSPCONbits	set	0x14
    98                           	global	_RA0
    99  0028                     _RA0	set	0x28
   100                           	global	_RA1
   101  0029                     _RA1	set	0x29
   102                           	global	_RA2
   103  002A                     _RA2	set	0x2A
   104                           	global	_RA3
   105  002B                     _RA3	set	0x2B
   106                           	global	_RA4
   107  002C                     _RA4	set	0x2C
   108                           	global	_RA5
   109  002D                     _RA5	set	0x2D
   110                           	global	_RB2
   111  0032                     _RB2	set	0x32
   112                           	global	_RB3
   113  0033                     _RB3	set	0x33
   114                           	global	_RB4
   115  0034                     _RB4	set	0x34
   116                           	global	_RB5
   117  0035                     _RB5	set	0x35
   118                           	global	_RB6
   119  0036                     _RB6	set	0x36
   120                           	global	_RB7
   121  0037                     _RB7	set	0x37
   122                           	global	_RC6
   123  003E                     _RC6	set	0x3E
   124                           	global	_RC7
   125  003F                     _RC7	set	0x3F
   126                           	global	_ADCON1
   127  009F                     _ADCON1	set	0x9F
   128                           	global	_SSPSTATbits
   129  0094                     _SSPSTATbits	set	0x94
   130                           	global	_TRISB
   131  0086                     _TRISB	set	0x86
   132                           	global	_TRISC
   133  0087                     _TRISC	set	0x87
   134                           	global	_TRISA0
   135  0428                     _TRISA0	set	0x428
   136                           	global	_TRISA1
   137  0429                     _TRISA1	set	0x429
   138                           	global	_TRISA2
   139  042A                     _TRISA2	set	0x42A
   140                           	global	_TRISA3
   141  042B                     _TRISA3	set	0x42B
   142                           	global	_TRISA4
   143  042C                     _TRISA4	set	0x42C
   144                           	global	_TRISA5
   145  042D                     _TRISA5	set	0x42D
   146                           psect	strings,class=STRING,delta=2
   147                           global __pstrings
   148  0003                     __pstrings:
   149                           ;	global	stringdir,stringtab,__stringbase
   150  0003                     stringtab:
   151                           ;	String table - string pointers are 1 byte each
   152  0003  1BFF               	btfsc	(btemp+1),7
   153  0004  280D               	ljmp	stringcode
   154  0005  1383               	bcf	status,7
   155  0006  187F               	btfsc	(btemp+1),0
   156  0007  1783               	bsf	status,7
   157  0008  0800               	movf	indf,w
   158  0009  0A84               	incf fsr
   159  000A  1903               skipnz
   160  000B  0AFF               incf btemp+1
   161  000C  0008               	return
   162  000D                     stringcode:stringdir:
      + 000D                     stringdir:	
   163  000D  3000               movlw high(stringdir)
   164  000E  008A               movwf pclath
   165  000F  0804               movf fsr,w
   166  0010  0A84               incf fsr
   167  0011  0782               	addwf pc
   168  0012                     __stringbase:
   169  0012  3400               	retlw	0
   170                           psect	strings
   171                           	
   172  0013                     STR_1:	
   173  0013  3452               	retlw	82	;'R'
   174  0014  3465               	retlw	101	;'e'
   175  0015  3463               	retlw	99	;'c'
   176  0016  3465               	retlw	101	;'e'
   177  0017  3469               	retlw	105	;'i'
   178  0018  3476               	retlw	118	;'v'
   179  0019  3465               	retlw	101	;'e'
   180  001A  3420               	retlw	32	;' '
   181  001B  3400               	retlw	0
   182                           psect	strings
   183                           	
   184  001C                     STR_2:	
   185  001C  3454               	retlw	84	;'T'
   186  001D  3472               	retlw	114	;'r'
   187  001E  3461               	retlw	97	;'a'
   188  001F  346E               	retlw	110	;'n'
   189  0020  3473               	retlw	115	;'s'
   190  0021  346D               	retlw	109	;'m'
   191  0022  3469               	retlw	105	;'i'
   192  0023  3474               	retlw	116	;'t'
   193  0024  3400               	retlw	0
   194                           psect	strings
   195                           	
   196  0025                     STR_3:	
   197  0025  344D               	retlw	77	;'M'
   198  0026  346F               	retlw	111	;'o'
   199  0027  3464               	retlw	100	;'d'
   200  0028  3465               	retlw	101	;'e'
   201  0029  3400               	retlw	0
   202                           psect	strings
   203                           	file	"C:\Users\HATAKE~1\AppData\Local\Temp\s574."
   204                           	line	#
   205                           psect cinit,class=CODE,delta=2
   206                           global start_initialization
   207  022D                     start_initialization:
   208                           
   209                           psect cinit,class=CODE,delta=2,merge=1
   210                           global end_of_initialization
   211                           
   212                           ;End of C runtime variable initialization code
   213                           
   214  022D                     end_of_initialization:
   215  022D  0183               clrf status
   216  022E  120A  118A  2E36   ljmp _main	;jump to C main() function
   217                           psect	cstackCOMMON,class=COMMON,space=1
   218                           global __pcstackCOMMON
   219  0070                     __pcstackCOMMON:
   220                           	global	?_LCD_4bitsend
   221  0070                     ?_LCD_4bitsend:	; 0 bytes @ 0x0
   222                           	global	??_LCD_4bitsend
   223  0070                     ??_LCD_4bitsend:	; 0 bytes @ 0x0
   224                           	global	?_initialzie
   225  0070                     ?_initialzie:	; 0 bytes @ 0x0
   226                           	global	?_vNrf24l01EnableTx
   227  0070                     ?_vNrf24l01EnableTx:	; 0 bytes @ 0x0
   228                           	global	?_vNrf24l01EnableRx
   229  0070                     ?_vNrf24l01EnableRx:	; 0 bytes @ 0x0
   230                           	global	?_vInitSpi
   231  0070                     ?_vInitSpi:	; 0 bytes @ 0x0
   232                           	global	??_vInitSpi
   233  0070                     ??_vInitSpi:	; 0 bytes @ 0x0
   234                           	global	?_vInitNrf24l01
   235  0070                     ?_vInitNrf24l01:	; 0 bytes @ 0x0
   236                           	global	??_ucTransferSpi
   237  0070                     ??_ucTransferSpi:	; 0 bytes @ 0x0
   238                           	global	??_keypad_read
   239  0070                     ??_keypad_read:	; 0 bytes @ 0x0
   240                           	global	?_LCD_command
   241  0070                     ?_LCD_command:	; 0 bytes @ 0x0
   242                           	global	?_LCD_initialize
   243  0070                     ?_LCD_initialize:	; 0 bytes @ 0x0
   244                           	global	?_LCD_senddata
   245  0070                     ?_LCD_senddata:	; 0 bytes @ 0x0
   246                           	global	?_LCD_putstr
   247  0070                     ?_LCD_putstr:	; 0 bytes @ 0x0
   248                           	global	?_LCD_putchar
   249  0070                     ?_LCD_putchar:	; 0 bytes @ 0x0
   250                           	global	?_ucReadNrf24l01Status
   251  0070                     ?_ucReadNrf24l01Status:	; 1 bytes @ 0x0
   252                           	global	?_ucReadNrf24l01FifoStatus
   253  0070                     ?_ucReadNrf24l01FifoStatus:	; 1 bytes @ 0x0
   254                           	global	?_ucTransferSpi
   255  0070                     ?_ucTransferSpi:	; 1 bytes @ 0x0
   256                           	global	?_keypad_read
   257  0070                     ?_keypad_read:	; 1 bytes @ 0x0
   258                           	global	?_keypad_wait
   259  0070                     ?_keypad_wait:	; 1 bytes @ 0x0
   260                           	global	?_main
   261  0070                     ?_main:	; 2 bytes @ 0x0
   262  0070                     	ds	1
   263                           	global	??_keypad_wait
   264  0071                     ??_keypad_wait:	; 0 bytes @ 0x1
   265                           	global	ucTransferSpi@TempVar
   266  0071                     ucTransferSpi@TempVar:	; 1 bytes @ 0x1
   267  0071                     	ds	1
   268                           	global	keypad_wait@c_pressed_key
   269  0072                     keypad_wait@c_pressed_key:	; 1 bytes @ 0x2
   270                           	global	LCD_4bitsend@data
   271  0072                     LCD_4bitsend@data:	; 1 bytes @ 0x2
   272                           	global	ucTransferSpi@ucData
   273  0072                     ucTransferSpi@ucData:	; 1 bytes @ 0x2
   274  0072                     	ds	1
   275                           	global	?_vWriteNrf24l01
   276  0073                     ?_vWriteNrf24l01:	; 0 bytes @ 0x3
   277                           	global	?_vReadNrf24l01
   278  0073                     ?_vReadNrf24l01:	; 0 bytes @ 0x3
   279                           	global	??_ucReadNrf24l01Status
   280  0073                     ??_ucReadNrf24l01Status:	; 0 bytes @ 0x3
   281                           	global	??_LCD_command
   282  0073                     ??_LCD_command:	; 0 bytes @ 0x3
   283                           	global	??_LCD_senddata
   284  0073                     ??_LCD_senddata:	; 0 bytes @ 0x3
   285                           	global	LCD_command@var
   286  0073                     LCD_command@var:	; 1 bytes @ 0x3
   287                           	global	LCD_senddata@var
   288  0073                     LCD_senddata@var:	; 1 bytes @ 0x3
   289                           	global	vReadNrf24l01@ucAddress
   290  0073                     vReadNrf24l01@ucAddress:	; 1 bytes @ 0x3
   291                           	global	vWriteNrf24l01@ucAddress
   292  0073                     vWriteNrf24l01@ucAddress:	; 1 bytes @ 0x3
   293  0073                     	ds	1
   294                           	global	??_LCD_initialize
   295  0074                     ??_LCD_initialize:	; 0 bytes @ 0x4
   296                           	global	??_LCD_putstr
   297  0074                     ??_LCD_putstr:	; 0 bytes @ 0x4
   298                           	global	??_LCD_putchar
   299  0074                     ??_LCD_putchar:	; 0 bytes @ 0x4
   300                           	global	?_LCD_goto
   301  0074                     ?_LCD_goto:	; 0 bytes @ 0x4
   302                           	global	LCD_putchar@c_data
   303  0074                     LCD_putchar@c_data:	; 1 bytes @ 0x4
   304                           	global	LCD_goto@column
   305  0074                     LCD_goto@column:	; 1 bytes @ 0x4
   306                           	global	vReadNrf24l01@pucBuffer
   307  0074                     vReadNrf24l01@pucBuffer:	; 1 bytes @ 0x4
   308                           	global	ucReadNrf24l01Status@ucStatus
   309  0074                     ucReadNrf24l01Status@ucStatus:	; 1 bytes @ 0x4
   310                           	global	vWriteNrf24l01@pucBuffer
   311  0074                     vWriteNrf24l01@pucBuffer:	; 2 bytes @ 0x4
   312  0074                     	ds	1
   313                           	global	??_LCD_goto
   314  0075                     ??_LCD_goto:	; 0 bytes @ 0x5
   315                           	global	LCD_putstr@csz_string
   316  0075                     LCD_putstr@csz_string:	; 1 bytes @ 0x5
   317                           	global	LCD_goto@row
   318  0075                     LCD_goto@row:	; 1 bytes @ 0x5
   319                           	global	vReadNrf24l01@ucLength
   320  0075                     vReadNrf24l01@ucLength:	; 1 bytes @ 0x5
   321  0075                     	ds	1
   322                           	global	??_vReadNrf24l01
   323  0076                     ??_vReadNrf24l01:	; 0 bytes @ 0x6
   324                           	global	vWriteNrf24l01@ucLength
   325  0076                     vWriteNrf24l01@ucLength:	; 1 bytes @ 0x6
   326  0076                     	ds	1
   327                           	global	??_vWriteNrf24l01
   328  0077                     ??_vWriteNrf24l01:	; 0 bytes @ 0x7
   329                           	global	vReadNrf24l01@ucCommand
   330  0077                     vReadNrf24l01@ucCommand:	; 1 bytes @ 0x7
   331  0077                     	ds	1
   332                           	global	??_ucReadNrf24l01FifoStatus
   333  0078                     ??_ucReadNrf24l01FifoStatus:	; 0 bytes @ 0x8
   334                           	global	vWriteNrf24l01@ucCommand
   335  0078                     vWriteNrf24l01@ucCommand:	; 1 bytes @ 0x8
   336  0078                     	ds	1
   337                           	global	??_vNrf24l01EnableTx
   338  0079                     ??_vNrf24l01EnableTx:	; 0 bytes @ 0x9
   339                           	global	??_vNrf24l01EnableRx
   340  0079                     ??_vNrf24l01EnableRx:	; 0 bytes @ 0x9
   341                           	global	??_vInitNrf24l01
   342  0079                     ??_vInitNrf24l01:	; 0 bytes @ 0x9
   343                           	global	?_ucNrf24l01TransmitPacket
   344  0079                     ?_ucNrf24l01TransmitPacket:	; 1 bytes @ 0x9
   345                           	global	ucNrf24l01TransmitPacket@ucLength
   346  0079                     ucNrf24l01TransmitPacket@ucLength:	; 1 bytes @ 0x9
   347  0079                     	ds	1
   348                           	global	??_ucNrf24l01TransmitPacket
   349  007A                     ??_ucNrf24l01TransmitPacket:	; 0 bytes @ 0xA
   350                           	global	vNrf24l01EnableTx@ucBuffer
   351  007A                     vNrf24l01EnableTx@ucBuffer:	; 1 bytes @ 0xA
   352                           	global	vNrf24l01EnableRx@ucBuffer
   353  007A                     vNrf24l01EnableRx@ucBuffer:	; 1 bytes @ 0xA
   354                           	global	ucReadNrf24l01FifoStatus@ucFifoStatus
   355  007A                     ucReadNrf24l01FifoStatus@ucFifoStatus:	; 1 bytes @ 0xA
   356  007A                     	ds	1
   357                           	global	?_ucNrf24l01ReceivePacket
   358  007B                     ?_ucNrf24l01ReceivePacket:	; 1 bytes @ 0xB
   359                           	global	ucNrf24l01TransmitPacket@pucBuffer
   360  007B                     ucNrf24l01TransmitPacket@pucBuffer:	; 1 bytes @ 0xB
   361                           	global	ucNrf24l01ReceivePacket@ucLength
   362  007B                     ucNrf24l01ReceivePacket@ucLength:	; 1 bytes @ 0xB
   363  007B                     	ds	1
   364                           	global	??_initialzie
   365  007C                     ??_initialzie:	; 0 bytes @ 0xC
   366                           	global	??_ucNrf24l01ReceivePacket
   367  007C                     ??_ucNrf24l01ReceivePacket:	; 0 bytes @ 0xC
   368                           	global	ucNrf24l01TransmitPacket@ucStatus
   369  007C                     ucNrf24l01TransmitPacket@ucStatus:	; 1 bytes @ 0xC
   370  007C                     	ds	2
   371                           psect	cstackBANK0,class=BANK0,space=1
   372                           global __pcstackBANK0
   373  0020                     __pcstackBANK0:
   374                           	global	ucNrf24l01ReceivePacket@pucBuffer
   375  0020                     ucNrf24l01ReceivePacket@pucBuffer:	; 1 bytes @ 0x0
   376                           	global	vInitNrf24l01@aucBuffer
   377  0020                     vInitNrf24l01@aucBuffer:	; 5 bytes @ 0x0
   378  0020                     	ds	1
   379                           	global	ucNrf24l01ReceivePacket@ucFifoStatus
   380  0021                     ucNrf24l01ReceivePacket@ucFifoStatus:	; 1 bytes @ 0x1
   381  0021                     	ds	1
   382                           	global	ucNrf24l01ReceivePacket@ucStatus
   383  0022                     ucNrf24l01ReceivePacket@ucStatus:	; 1 bytes @ 0x2
   384  0022                     	ds	1
   385                           	global	ucNrf24l01ReceivePacket@ucReturnCode
   386  0023                     ucNrf24l01ReceivePacket@ucReturnCode:	; 1 bytes @ 0x3
   387  0023                     	ds	2
   388                           	global	??_main
   389  0025                     ??_main:	; 0 bytes @ 0x5
   390  0025                     	ds	3
   391                           	global	main@key
   392  0028                     main@key:	; 1 bytes @ 0x8
   393  0028                     	ds	1
   394                           	global	main@ucStatus
   395  0029                     main@ucStatus:	; 1 bytes @ 0x9
   396  0029                     	ds	1
   397                           	global	main@key_send
   398  002A                     main@key_send:	; 1 bytes @ 0xA
   399  002A                     	ds	1
   400                           	global	main@ucData
   401  002B                     main@ucData:	; 1 bytes @ 0xB
   402  002B                     	ds	1
   403                           ;!
   404                           ;!Data Sizes:
   405                           ;!    Strings     23
   406                           ;!    Constant    0
   407                           ;!    Data        0
   408                           ;!    BSS         0
   409                           ;!    Persistent  0
   410                           ;!    Stack       0
   411                           ;!
   412                           ;!Auto Spaces:
   413                           ;!    Space          Size  Autos    Used
   414                           ;!    COMMON           14     14      14
   415                           ;!    BANK0            80     12      12
   416                           ;!    BANK1            80      0       0
   417                           ;!    BANK3            96      0       0
   418                           ;!    BANK2            96      0       0
   419                           
   420                           ;!
   421                           ;!Pointer List with Targets:
   422                           ;!
   423                           ;!    vWriteNrf24l01@pucBuffer	PTR const unsigned char  size(2) Largest target is 8192
   424                           ;!		 -> ucNrf24l01ReceivePacket@ucStatus(BANK0[1]), ucNrf24l01TransmitPacket@ucStatus(CO
                                 MMON[1]), vNrf24l01EnableRx@ucBuffer(COMMON[1]), vNrf24l01EnableTx@ucBuffer(COMMON[1]), 
   425                           ;!		 -> vInitNrf24l01@aucBuffer(BANK0[5]), ROM(CODE[8192]), main@key_send(BANK0[1]), 
   426                           ;!
   427                           ;!    vReadNrf24l01@pucBuffer	PTR unsigned char  size(1) Largest target is 1
   428                           ;!		 -> ucReadNrf24l01FifoStatus@ucFifoStatus(COMMON[1]), vNrf24l01EnableRx@ucBuffer(COM
                                 MON[1]), vNrf24l01EnableTx@ucBuffer(COMMON[1]), main@ucData(BANK0[1]), 
   429                           ;!
   430                           ;!    ucNrf24l01ReceivePacket@pucBuffer	PTR unsigned char  size(1) Largest target is 1
   431                           ;!		 -> main@ucData(BANK0[1]), 
   432                           ;!
   433                           ;!    ucNrf24l01TransmitPacket@pucBuffer	PTR const unsigned char  size(1) Largest target
                                  is 1
   434                           ;!		 -> main@key_send(BANK0[1]), 
   435                           ;!
   436                           ;!    LCD_putstr@csz_string	PTR unsigned char  size(1) Largest target is 9
   437                           ;!		 -> STR_3(CODE[5]), STR_2(CODE[9]), STR_1(CODE[9]), 
   438                           ;!
   439                           
   440                           
   441                           ;!
   442                           ;!Critical Paths under _main in COMMON
   443                           ;!
   444                           ;!    _main->_ucNrf24l01ReceivePacket
   445                           ;!    _keypad_wait->_keypad_read
   446                           ;!    _LCD_putstr->_LCD_senddata
   447                           ;!    _LCD_putchar->_LCD_senddata
   448                           ;!    _LCD_senddata->_LCD_4bitsend
   449                           ;!    _LCD_goto->_LCD_command
   450                           ;!    _initialzie->_vInitNrf24l01
   451                           ;!    _LCD_initialize->_LCD_command
   452                           ;!    _LCD_command->_LCD_4bitsend
   453                           ;!    _ucNrf24l01ReceivePacket->_ucReadNrf24l01FifoStatus
   454                           ;!    _vNrf24l01EnableTx->_vWriteNrf24l01
   455                           ;!    _ucNrf24l01TransmitPacket->_vWriteNrf24l01
   456                           ;!    _vNrf24l01EnableRx->_vWriteNrf24l01
   457                           ;!    _vInitNrf24l01->_vWriteNrf24l01
   458                           ;!    _vWriteNrf24l01->_ucTransferSpi
   459                           ;!    _ucReadNrf24l01Status->_ucTransferSpi
   460                           ;!    _ucReadNrf24l01FifoStatus->_vReadNrf24l01
   461                           ;!    _vReadNrf24l01->_ucTransferSpi
   462                           ;!
   463                           ;!Critical Paths under _main in BANK0
   464                           ;!
   465                           ;!    _initialzie->_vInitNrf24l01
   466                           ;!
   467                           ;!Critical Paths under _main in BANK1
   468                           ;!
   469                           ;!    None.
   470                           ;!
   471                           ;!Critical Paths under _main in BANK3
   472                           ;!
   473                           ;!    None.
   474                           ;!
   475                           ;!Critical Paths under _main in BANK2
   476                           ;!
   477                           ;!    None.
   478                           
   479 ;;
   480 ;;Main: autosize = 0, tempsize = 3, incstack = 0, save=0
   481 ;;
   482                           
   483                           ;!
   484                           ;!Call Graph Tables:
   485                           ;!
   486                           ;! ---------------------------------------------------------------------------------
   487                           ;! (Depth) Function   	        Calls       Base Space   Used Autos Params    Refs
   488                           ;! ---------------------------------------------------------------------------------
   489                           ;! (0) _main                                                 7     7      0    2891
   490                           ;!                                              5 BANK0      7     7      0
   491                           ;!                         _initialzie
   492                           ;!            _ucNrf24l01ReceivePacket
   493                           ;!                           _LCD_goto
   494                           ;!                         _LCD_putstr
   495                           ;!                        _LCD_putchar
   496                           ;!                        _keypad_wait
   497                           ;!                  _vNrf24l01EnableTx
   498                           ;!           _ucNrf24l01TransmitPacket
   499                           ;!                  _vNrf24l01EnableRx
   500                           ;!                        _keypad_read
   501                           ;! ---------------------------------------------------------------------------------
   502                           ;! (1) _keypad_wait                                          2     2      0      46
   503                           ;!                                              1 COMMON     2     2      0
   504                           ;!                        _keypad_read
   505                           ;! ---------------------------------------------------------------------------------
   506                           ;! (1) _keypad_read                                          1     1      0       0
   507                           ;!                                              0 COMMON     1     1      0
   508                           ;! ---------------------------------------------------------------------------------
   509                           ;! (1) _LCD_putstr                                           2     2      0     243
   510                           ;!                                              4 COMMON     2     2      0
   511                           ;!                       _LCD_senddata
   512                           ;! ---------------------------------------------------------------------------------
   513                           ;! (1) _LCD_putchar                                          1     1      0     220
   514                           ;!                                              4 COMMON     1     1      0
   515                           ;!                       _LCD_senddata
   516                           ;! ---------------------------------------------------------------------------------
   517                           ;! (2) _LCD_senddata                                         1     1      0     198
   518                           ;!                                              3 COMMON     1     1      0
   519                           ;!                       _LCD_4bitsend
   520                           ;! ---------------------------------------------------------------------------------
   521                           ;! (1) _LCD_goto                                             2     1      1     264
   522                           ;!                                              4 COMMON     2     1      1
   523                           ;!                        _LCD_command
   524                           ;! ---------------------------------------------------------------------------------
   525                           ;! (1) _initialzie                                           0     0      0     614
   526                           ;!                           _vInitSpi
   527                           ;!                      _vInitNrf24l01
   528                           ;!                     _LCD_initialize
   529                           ;! ---------------------------------------------------------------------------------
   530                           ;! (2) _LCD_initialize                                       2     2      0     198
   531                           ;!                                              4 COMMON     2     2      0
   532                           ;!                        _LCD_command
   533                           ;! ---------------------------------------------------------------------------------
   534                           ;! (2) _LCD_command                                          1     1      0     198
   535                           ;!                                              3 COMMON     1     1      0
   536                           ;!                       _LCD_4bitsend
   537                           ;! ---------------------------------------------------------------------------------
   538                           ;! (3) _LCD_4bitsend                                         3     3      0     176
   539                           ;!                                              0 COMMON     3     3      0
   540                           ;! ---------------------------------------------------------------------------------
   541                           ;! (1) _ucNrf24l01ReceivePacket                              7     6      1     546
   542                           ;!                                             11 COMMON     3     2      1
   543                           ;!                                              0 BANK0      4     4      0
   544                           ;!           _ucReadNrf24l01FifoStatus
   545                           ;!                      _vReadNrf24l01
   546                           ;!               _ucReadNrf24l01Status
   547                           ;!                     _vWriteNrf24l01
   548                           ;! ---------------------------------------------------------------------------------
   549                           ;! (1) _vNrf24l01EnableTx                                    2     2      0     274
   550                           ;!                                              9 COMMON     2     2      0
   551                           ;!                      _vReadNrf24l01
   552                           ;!                     _vWriteNrf24l01
   553                           ;! ---------------------------------------------------------------------------------
   554                           ;! (1) _ucNrf24l01TransmitPacket                             4     3      1     271
   555                           ;!                                              9 COMMON     4     3      1
   556                           ;!                     _vWriteNrf24l01
   557                           ;!               _ucReadNrf24l01Status
   558                           ;! ---------------------------------------------------------------------------------
   559                           ;! (1) _vNrf24l01EnableRx                                    2     2      0     274
   560                           ;!                                              9 COMMON     2     2      0
   561                           ;!                      _vReadNrf24l01
   562                           ;!                     _vWriteNrf24l01
   563                           ;! ---------------------------------------------------------------------------------
   564                           ;! (2) _vInitSpi                                             0     0      0       0
   565                           ;! ---------------------------------------------------------------------------------
   566                           ;! (2) _vInitNrf24l01                                        8     8      0     416
   567                           ;!                                              9 COMMON     3     3      0
   568                           ;!                                              0 BANK0      5     5      0
   569                           ;!                     _vWriteNrf24l01
   570                           ;! ---------------------------------------------------------------------------------
   571                           ;! (2) _vWriteNrf24l01                                       6     2      4     113
   572                           ;!                                              3 COMMON     6     2      4
   573                           ;!                      _ucTransferSpi
   574                           ;! ---------------------------------------------------------------------------------
   575                           ;! (2) _ucReadNrf24l01Status                                 2     2      0      46
   576                           ;!                                              3 COMMON     2     2      0
   577                           ;!                      _ucTransferSpi
   578                           ;! ---------------------------------------------------------------------------------
   579                           ;! (2) _ucReadNrf24l01FifoStatus                             3     3      0     159
   580                           ;!                                              8 COMMON     3     3      0
   581                           ;!                      _vReadNrf24l01
   582                           ;! ---------------------------------------------------------------------------------
   583                           ;! (2) _vReadNrf24l01                                        5     2      3     113
   584                           ;!                                              3 COMMON     5     2      3
   585                           ;!                      _ucTransferSpi
   586                           ;! ---------------------------------------------------------------------------------
   587                           ;! (3) _ucTransferSpi                                        3     3      0      23
   588                           ;!                                              0 COMMON     3     3      0
   589                           ;! ---------------------------------------------------------------------------------
   590                           ;! Estimated maximum stack depth 3
   591                           ;! ---------------------------------------------------------------------------------
   592                           ;!
   593                           ;! Call Graph Graphs:
   594                           ;!
   595                           ;! _main (ROOT)
   596                           ;!   _initialzie
   597                           ;!     _vInitSpi
   598                           ;!     _vInitNrf24l01
   599                           ;!       _vWriteNrf24l01
   600                           ;!         _ucTransferSpi
   601                           ;!     _LCD_initialize
   602                           ;!       _LCD_command
   603                           ;!         _LCD_4bitsend
   604                           ;!   _ucNrf24l01ReceivePacket
   605                           ;!     _ucReadNrf24l01FifoStatus
   606                           ;!       _vReadNrf24l01
   607                           ;!         _ucTransferSpi
   608                           ;!     _vReadNrf24l01
   609                           ;!       _ucTransferSpi
   610                           ;!     _ucReadNrf24l01Status
   611                           ;!       _ucTransferSpi
   612                           ;!     _vWriteNrf24l01
   613                           ;!       _ucTransferSpi
   614                           ;!   _LCD_goto
   615                           ;!     _LCD_command
   616                           ;!       _LCD_4bitsend
   617                           ;!   _LCD_putstr
   618                           ;!     _LCD_senddata
   619                           ;!       _LCD_4bitsend
   620                           ;!   _LCD_putchar
   621                           ;!     _LCD_senddata
   622                           ;!       _LCD_4bitsend
   623                           ;!   _keypad_wait
   624                           ;!     _keypad_read
   625                           ;!   _vNrf24l01EnableTx
   626                           ;!     _vReadNrf24l01
   627                           ;!       _ucTransferSpi
   628                           ;!     _vWriteNrf24l01
   629                           ;!       _ucTransferSpi
   630                           ;!   _ucNrf24l01TransmitPacket
   631                           ;!     _vWriteNrf24l01
   632                           ;!       _ucTransferSpi
   633                           ;!     _ucReadNrf24l01Status
   634                           ;!       _ucTransferSpi
   635                           ;!   _vNrf24l01EnableRx
   636                           ;!     _vReadNrf24l01
   637                           ;!       _ucTransferSpi
   638                           ;!     _vWriteNrf24l01
   639                           ;!       _ucTransferSpi
   640                           ;!   _keypad_read
   641                           ;!
   642                           
   643                           ;! Address spaces:
   644                           
   645                           ;!Name               Size   Autos  Total    Cost      Usage
   646                           ;!BITCOMMON            E      0       0       0        0.0%
   647                           ;!EEDATA             100      0       0       0        0.0%
   648                           ;!NULL                 0      0       0       0        0.0%
   649                           ;!CODE                 0      0       0       0        0.0%
   650                           ;!COMMON               E      E       E       1      100.0%
   651                           ;!BITSFR0              0      0       0       1        0.0%
   652                           ;!SFR0                 0      0       0       1        0.0%
   653                           ;!BITSFR1              0      0       0       2        0.0%
   654                           ;!SFR1                 0      0       0       2        0.0%
   655                           ;!STACK                0      0       4       2        0.0%
   656                           ;!ABS                  0      0       0       3        0.0%
   657                           ;!BITBANK0            50      0       0       4        0.0%
   658                           ;!BITSFR3              0      0       0       4        0.0%
   659                           ;!SFR3                 0      0       0       4        0.0%
   660                           ;!BANK0               50      C       C       5       15.0%
   661                           ;!BITSFR2              0      0       0       5        0.0%
   662                           ;!SFR2                 0      0       0       5        0.0%
   663                           ;!BITBANK1            50      0       0       6        0.0%
   664                           ;!BANK1               50      0       0       7        0.0%
   665                           ;!BITBANK3            60      0       0       8        0.0%
   666                           ;!BANK3               60      0       0       9        0.0%
   667                           ;!BITBANK2            60      0       0      10        0.0%
   668                           ;!BANK2               60      0       0      11        0.0%
   669                           ;!DATA                 0      0       0      12        0.0%
   670                           
   671                           	global	_main
   672                           
   673 ;; *************** function _main *****************
   674 ;; Defined at:
   675 ;;		line 26 in file "main.c"
   676 ;; Parameters:    Size  Location     Type
   677 ;;		None
   678 ;; Auto vars:     Size  Location     Type
   679 ;;  ucData          1   11[BANK0 ] unsigned char 
   680 ;;  key_send        1   10[BANK0 ] unsigned char 
   681 ;;  ucStatus        1    9[BANK0 ] unsigned char 
   682 ;;  key             1    8[BANK0 ] unsigned char 
   683 ;; Return value:  Size  Location     Type
   684 ;;                  2  148[COMMON] int 
   685 ;; Registers used:
   686 ;;		wreg, fsr0l, fsr0h, status,2, status,0, btemp+1, pclath, cstack
   687 ;; Tracked objects:
   688 ;;		On entry : 17F/0
   689 ;;		On exit  : 0/0
   690 ;;		Unchanged: 0/0
   691 ;; Data sizes:     COMMON   BANK0   BANK1   BANK3   BANK2
   692 ;;      Params:         0       0       0       0       0
   693 ;;      Locals:         0       4       0       0       0
   694 ;;      Temps:          0       3       0       0       0
   695 ;;      Totals:         0       7       0       0       0
   696 ;;Total ram usage:        7 bytes
   697 ;; Hardware stack levels required when called:    4
   698 ;; This function calls:
   699 ;;		_initialzie
   700 ;;		_ucNrf24l01ReceivePacket
   701 ;;		_LCD_goto
   702 ;;		_LCD_putstr
   703 ;;		_LCD_putchar
   704 ;;		_keypad_wait
   705 ;;		_vNrf24l01EnableTx
   706 ;;		_ucNrf24l01TransmitPacket
   707 ;;		_vNrf24l01EnableRx
   708 ;;		_keypad_read
   709 ;; This function is called by:
   710 ;;		Startup code after reset
   711 ;; This function uses a non-reentrant model
   712 ;;
   713                           psect	maintext,global,class=CODE,delta=2,split=1
   714                           global __pmaintext
   715  0636                     __pmaintext:
   716                           psect	maintext
   717                           	file	"main.c"
   718                           	line	26
   719                           	global	__size_of_main
   720  00C4                     	__size_of_main	equ	__end_of_main-_main
   721                           	
   722  0636                     _main:	
   723                           	opt	stack 4
   724                           ; Regs used in _main: [wreg-fsr0h+status,2+status,0+btemp+1+pclath+cstack]
   725                           	line	32
   726                           	
   727  0636                     l1527:	
   728                           ;main.c: 27: unsigned char ucStatus;
   729                           ;main.c: 28: unsigned char ucData;
   730                           ;main.c: 29: unsigned char key_send;
   731                           ;main.c: 30: unsigned char key;
   732                           ;main.c: 32: initialzie();
   733  0636  120A  118A  233E   	fcall	_initialzie
              120A  118A         
   734  063B  2E3C               	goto	l1529
   735                           	line	34
   736                           ;main.c: 34: while (1)
   737                           	
   738  063C                     l149:	
   739                           	line	37
   740                           	
   741  063C                     l1529:	
   742                           ;main.c: 35: {
   743                           ;main.c: 37: if (PORTCbits.RC2 == 0)
   744  063C  1283               	bcf	status, 5	;RP0=0, select bank0
   745  063D  1303               	bcf	status, 6	;RP1=0, select bank0
   746  063E  1907               	btfsc	(7),2	;volatile
   747  063F  2E41               	goto	u1081
   748  0640  2E42               	goto	u1080
   749  0641                     u1081:
   750  0641  2EE7               	goto	l1573
   751  0642                     u1080:
   752                           	line	39
   753                           	
   754  0642                     l1531:	
   755                           ;main.c: 38: {
   756                           ;main.c: 39: ucStatus = ucNrf24l01ReceivePacket(&ucData, 1);
   757  0642  01FB               	clrf	(?_ucNrf24l01ReceivePacket)
   758  0643  1403               	bsf	status,0
   759  0644  0DFB               	rlf	(?_ucNrf24l01ReceivePacket),f
   760  0645  302B               	movlw	(main@ucData)&0ffh
   761  0646  120A  118A  23C4   	fcall	_ucNrf24l01ReceivePacket
              120A  118A         
   762  064B  1283               	bcf	status, 5	;RP0=0, select bank0
   763  064C  1303               	bcf	status, 6	;RP1=0, select bank0
   764  064D  00A5               	movwf	(??_main+0)+0
   765  064E  0825               	movf	(??_main+0)+0,w
   766  064F  00A9               	movwf	(main@ucStatus)
   767                           	line	42
   768                           	
   769  0650                     l1533:	
   770                           ;main.c: 42: if (ucStatus != 0)
   771  0650  0829               	movf	(main@ucStatus),w
   772  0651  1D03               	skipz
   773  0652  2E54               	goto	u1090
   774  0653  2EE7               	goto	l1573
   775  0654                     u1090:
   776                           	line	44
   777                           	
   778  0654                     l1535:	
   779                           ;main.c: 43: {
   780                           ;main.c: 44: LCD_goto(0, 0);
   781  0654  01F4               	clrf	(?_LCD_goto)
   782  0655  3000               	movlw	(0)
   783  0656  120A  118A  229A   	fcall	_LCD_goto
              120A  118A         
   784                           	line	45
   785                           	
   786  065B                     l1537:	
   787                           ;main.c: 45: LCD_putstr("Receive ");
   788  065B  3001               	movlw	((STR_1-__stringbase))&0ffh
   789  065C  120A  118A  22B1   	fcall	_LCD_putstr
              120A  118A         
   790                           	line	46
   791                           	
   792  0661                     l1539:	
   793                           ;main.c: 46: LCD_goto(1, 0);
   794  0661  01F4               	clrf	(?_LCD_goto)
   795  0662  3001               	movlw	(01h)
   796  0663  120A  118A  229A   	fcall	_LCD_goto
              120A  118A         
   797                           	line	47
   798                           	
   799  0668                     l1541:	
   800                           ;main.c: 47: LCD_putchar(ucData);
   801  0668  1283               	bcf	status, 5	;RP0=0, select bank0
   802  0669  1303               	bcf	status, 6	;RP1=0, select bank0
   803  066A  082B               	movf	(main@ucData),w
   804  066B  120A  118A  2231   	fcall	_LCD_putchar
              120A  118A         
   805                           	line	49
   806                           	
   807  0670                     l1543:	
   808                           ;main.c: 49: if (ucData == '1')
   809  0670  1283               	bcf	status, 5	;RP0=0, select bank0
   810  0671  1303               	bcf	status, 6	;RP1=0, select bank0
   811  0672  082B               	movf	(main@ucData),w
   812  0673  3A31               	xorlw	031h
   813  0674  1D03               	skipz
   814  0675  2E77               	goto	u1101
   815  0676  2E78               	goto	u1100
   816  0677                     u1101:
   817  0677  2E7A               	goto	l1547
   818  0678                     u1100:
   819                           	line	51
   820                           	
   821  0678                     l1545:	
   822                           ;main.c: 50: {
   823                           ;main.c: 51: PORTBbits.RB1 = 1;
   824  0678  1486               	bsf	(6),1	;volatile
   825                           	line	52
   826                           ;main.c: 52: }
   827  0679  2EE7               	goto	l1573
   828                           	line	53
   829                           	
   830  067A                     l152:	
   831                           	
   832  067A                     l1547:	
   833                           ;main.c: 53: else if (ucData == '2')
   834  067A  082B               	movf	(main@ucData),w
   835  067B  3A32               	xorlw	032h
   836  067C  1D03               	skipz
   837  067D  2E7F               	goto	u1111
   838  067E  2E80               	goto	u1110
   839  067F                     u1111:
   840  067F  2EE7               	goto	l1573
   841  0680                     u1110:
   842                           	line	55
   843                           	
   844  0680                     l1549:	
   845                           ;main.c: 54: {
   846                           ;main.c: 55: PORTBbits.RB1 = 0;
   847  0680  1086               	bcf	(6),1	;volatile
   848  0681  2EE7               	goto	l1573
   849                           	line	56
   850                           	
   851  0682                     l154:	
   852  0682  2EE7               	goto	l1573
   853                           	line	57
   854                           	
   855  0683                     l153:	
   856  0683  2EE7               	goto	l1573
   857                           	
   858  0684                     l151:	
   859  0684  2EE7               	goto	l1573
   860                           	line	58
   861                           	
   862  0685                     l150:	
   863                           	line	60
   864                           ;main.c: 56: }
   865                           ;main.c: 57: }
   866                           ;main.c: 58: }
   867                           ;main.c: 60: while((key = keypad_read()) != 0xFF)
   868  0685  2EE7               	goto	l1573
   869                           	
   870  0686                     l156:	
   871                           	line	63
   872                           	
   873  0686                     l1551:	
   874                           ;main.c: 61: {
   875                           ;main.c: 63: key_send = keypad_wait();
   876  0686  120A  118A  231A   	fcall	_keypad_wait
              120A  118A         
   877  068B  1283               	bcf	status, 5	;RP0=0, select bank0
   878  068C  1303               	bcf	status, 6	;RP1=0, select bank0
   879  068D  00A5               	movwf	(??_main+0)+0
   880  068E  0825               	movf	(??_main+0)+0,w
   881  068F  00AA               	movwf	(main@key_send)
   882                           	line	64
   883                           	
   884  0690                     l1553:	
   885                           ;main.c: 64: PORTBbits.RB1 = ~PORTBbits.RB1;
   886  0690  1003               	clrc
   887  0691  1C86               	btfss	(6),1	;volatile
   888  0692  1403               	setc
   889  0693  1803               	btfsc	status,0
   890  0694  2E96               	goto	u1121
   891  0695  2E9A               	goto	u1120
   892                           	
   893  0696                     u1121:
   894  0696  1283               	bcf	status, 5	;RP0=0, select bank0
   895  0697  1303               	bcf	status, 6	;RP1=0, select bank0
   896  0698  1486               	bsf	(6),1	;volatile
   897  0699  2E9D               	goto	u1134
   898  069A                     u1120:
   899  069A  1283               	bcf	status, 5	;RP0=0, select bank0
   900  069B  1303               	bcf	status, 6	;RP1=0, select bank0
   901  069C  1086               	bcf	(6),1	;volatile
   902  069D                     u1134:
   903                           	line	65
   904                           	
   905  069D                     l1555:	
   906                           ;main.c: 65: _delay((unsigned long)((30)*(20000000/4000.0)));
   907                           	opt asmopt_off
   908  069D  30C3               movlw	195
   909  069E  00A6               movwf	((??_main+0)+0+1),f
   910  069F  30CD               	movlw	205
   911  06A0  00A5               movwf	((??_main+0)+0),f
   912  06A1                     u1157:
   913  06A1  0BA5               	decfsz	((??_main+0)+0),f
   914  06A2  2EA1               	goto	u1157
   915  06A3  0BA6               	decfsz	((??_main+0)+0+1),f
   916  06A4  2EA1               	goto	u1157
   917                           opt asmopt_on
   918                           
   919                           	line	66
   920                           	
   921  06A5                     l1557:	
   922                           ;main.c: 66: LCD_goto(0, 0);
   923  06A5  01F4               	clrf	(?_LCD_goto)
   924  06A6  3000               	movlw	(0)
   925  06A7  120A  118A  229A   	fcall	_LCD_goto
              120A  118A         
   926                           	line	67
   927                           	
   928  06AC                     l1559:	
   929                           ;main.c: 67: LCD_putstr("Transmit");
   930  06AC  300A               	movlw	((STR_2-__stringbase))&0ffh
   931  06AD  120A  118A  22B1   	fcall	_LCD_putstr
              120A  118A         
   932                           	line	68
   933                           	
   934  06B2                     l1561:	
   935                           ;main.c: 68: LCD_goto(1,0);
   936  06B2  01F4               	clrf	(?_LCD_goto)
   937  06B3  3001               	movlw	(01h)
   938  06B4  120A  118A  229A   	fcall	_LCD_goto
              120A  118A         
   939                           	line	69
   940                           	
   941  06B9                     l1563:	
   942                           ;main.c: 69: LCD_putstr("Mode");
   943  06B9  3013               	movlw	((STR_3-__stringbase))&0ffh
   944  06BA  120A  118A  22B1   	fcall	_LCD_putstr
              120A  118A         
   945                           	line	70
   946                           	
   947  06BF                     l1565:	
   948                           ;main.c: 70: _delay((unsigned long)((40)*(20000000/4000.0)));
   949                           	opt asmopt_off
   950  06BF  3002               movlw  2
   951  06C0  1283               	bcf	status, 5	;RP0=0, select bank0
   952  06C1  1303               	bcf	status, 6	;RP1=0, select bank0
   953  06C2  00A7               movwf	((??_main+0)+0+2),f
   954  06C3  3004               movlw	4
   955  06C4  00A6               movwf	((??_main+0)+0+1),f
   956  06C5  30BA               	movlw	186
   957  06C6  00A5               movwf	((??_main+0)+0),f
   958  06C7                     u1167:
   959  06C7  0BA5               	decfsz	((??_main+0)+0),f
   960  06C8  2EC7               	goto	u1167
   961  06C9  0BA6               	decfsz	((??_main+0)+0+1),f
   962  06CA  2EC7               	goto	u1167
   963  06CB  0BA7               	decfsz	((??_main+0)+0+2),f
   964  06CC  2EC7               	goto	u1167
   965  06CD  0000               	nop
   966                           opt asmopt_on
   967                           
   968                           	line	71
   969                           	
   970  06CE                     l1567:	
   971                           ;main.c: 71: vNrf24l01EnableTx();
   972  06CE  120A  118A  22F6   	fcall	_vNrf24l01EnableTx
              120A  118A         
   973                           	line	73
   974                           	
   975  06D3                     l1569:	
   976                           ;main.c: 73: ucStatus = ucNrf24l01TransmitPacket(&key_send, 1);
   977  06D3  01F9               	clrf	(?_ucNrf24l01TransmitPacket)
   978  06D4  1403               	bsf	status,0
   979  06D5  0DF9               	rlf	(?_ucNrf24l01TransmitPacket),f
   980  06D6  302A               	movlw	(main@key_send)&0ffh
   981  06D7  120A  118A  240C   	fcall	_ucNrf24l01TransmitPacket
              120A  118A         
   982  06DC  1283               	bcf	status, 5	;RP0=0, select bank0
   983  06DD  1303               	bcf	status, 6	;RP1=0, select bank0
   984  06DE  00A5               	movwf	(??_main+0)+0
   985  06DF  0825               	movf	(??_main+0)+0,w
   986  06E0  00A9               	movwf	(main@ucStatus)
   987                           	line	76
   988                           	
   989  06E1                     l1571:	
   990                           ;main.c: 76: vNrf24l01EnableRx();
   991  06E1  120A  118A  22D2   	fcall	_vNrf24l01EnableRx
              120A  118A         
   992  06E6  2EE7               	goto	l1573
   993                           	line	77
   994                           	
   995  06E7                     l155:	
   996                           	line	60
   997                           	
   998  06E7                     l1573:	
   999  06E7  120A  118A  24F1   	fcall	_keypad_read
              120A  118A         
  1000  06EC  1283               	bcf	status, 5	;RP0=0, select bank0
  1001  06ED  1303               	bcf	status, 6	;RP1=0, select bank0
  1002  06EE  00A8               	movwf	(main@key)
  1003  06EF  3AFF               	xorlw	0FFh
  1004  06F0  1D03               	skipz
  1005  06F1  2EF3               	goto	u1141
  1006  06F2  2EF4               	goto	u1140
  1007  06F3                     u1141:
  1008  06F3  2E86               	goto	l1551
  1009  06F4                     u1140:
  1010  06F4  2E3C               	goto	l1529
  1011                           	
  1012  06F5                     l157:	
  1013  06F5  2E3C               	goto	l1529
  1014                           	line	78
  1015                           	
  1016  06F6                     l158:	
  1017                           	line	34
  1018  06F6  2E3C               	goto	l1529
  1019                           	
  1020  06F7                     l159:	
  1021                           	line	79
  1022                           	
  1023  06F7                     l160:	
  1024                           	global	start
  1025  06F7  120A  118A  2800   	ljmp	start
  1026                           	opt stack 0
  1027                           GLOBAL	__end_of_main
  1028  06FA                     	__end_of_main:
  1029                           	signat	_main,90
  1030                           	global	_keypad_wait
  1031                           
  1032 ;; *************** function _keypad_wait *****************
  1033 ;; Defined at:
  1034 ;;		line 78 in file "keypad.c"
  1035 ;; Parameters:    Size  Location     Type
  1036 ;;		None
  1037 ;; Auto vars:     Size  Location     Type
  1038 ;;  c_pressed_ke    1    2[COMMON] unsigned char 
  1039 ;; Return value:  Size  Location     Type
  1040 ;;                  1    wreg      unsigned char 
  1041 ;; Registers used:
  1042 ;;		wreg, pclath, cstack
  1043 ;; Tracked objects:
  1044 ;;		On entry : 0/0
  1045 ;;		On exit  : 0/0
  1046 ;;		Unchanged: 0/0
  1047 ;; Data sizes:     COMMON   BANK0   BANK1   BANK3   BANK2
  1048 ;;      Params:         0       0       0       0       0
  1049 ;;      Locals:         1       0       0       0       0
  1050 ;;      Temps:          1       0       0       0       0
  1051 ;;      Totals:         2       0       0       0       0
  1052 ;;Total ram usage:        2 bytes
  1053 ;; Hardware stack levels used:    1
  1054 ;; Hardware stack levels required when called:    1
  1055 ;; This function calls:
  1056 ;;		_keypad_read
  1057 ;; This function is called by:
  1058 ;;		_main
  1059 ;; This function uses a non-reentrant model
  1060 ;;
  1061                           psect	text465,local,class=CODE,delta=2,merge=1
  1062                           global __ptext465
  1063  031A                     __ptext465:
  1064                           psect	text465
  1065                           	file	"keypad.c"
  1066                           	line	78
  1067                           	global	__size_of_keypad_wait
  1068  0024                     	__size_of_keypad_wait	equ	__end_of_keypad_wait-_keypad_wait
  1069                           	
  1070  031A                     _keypad_wait:	
  1071                           	opt	stack 6
  1072                           ; Regs used in _keypad_wait: [wreg+pclath+cstack]
  1073                           	line	80
  1074                           	
  1075  031A                     l1287:	
  1076                           ;keypad.c: 80: unsigned char c_pressed_key = 0xFF;
  1077  031A  30FF               	movlw	(0FFh)
  1078  031B  00F1               	movwf	(??_keypad_wait+0)+0
  1079  031C  0871               	movf	(??_keypad_wait+0)+0,w
  1080  031D  00F2               	movwf	(keypad_wait@c_pressed_key)
  1081  031E  2B1F               	goto	l1289
  1082                           	line	83
  1083                           ;keypad.c: 83: do {
  1084                           	
  1085  031F                     l40:	
  1086                           	line	84
  1087                           	
  1088  031F                     l1289:	
  1089                           ;keypad.c: 84: c_pressed_key = keypad_read();
  1090  031F  120A  118A  24F1   	fcall	_keypad_read
              120A  118A         
  1091  0324  00F1               	movwf	(??_keypad_wait+0)+0
  1092  0325  0871               	movf	(??_keypad_wait+0)+0,w
  1093  0326  00F2               	movwf	(keypad_wait@c_pressed_key)
  1094                           	line	86
  1095                           	
  1096  0327                     l1291:	
  1097                           ;keypad.c: 85: }
  1098                           ;keypad.c: 86: while (c_pressed_key == 0xFF);
  1099  0327  0872               	movf	(keypad_wait@c_pressed_key),w
  1100  0328  3AFF               	xorlw	0FFh
  1101  0329  1903               	skipnz
  1102  032A  2B2C               	goto	u1001
  1103  032B  2B2D               	goto	u1000
  1104  032C                     u1001:
  1105  032C  2B1F               	goto	l1289
  1106  032D                     u1000:
  1107  032D  2B30               	goto	l1293
  1108                           	
  1109  032E                     l41:	
  1110                           	line	89
  1111                           ;keypad.c: 89: while (keypad_read() != 0xFF);
  1112  032E  2B30               	goto	l1293
  1113                           	
  1114  032F                     l43:	
  1115  032F  2B30               	goto	l1293
  1116                           	
  1117  0330                     l42:	
  1118                           	
  1119  0330                     l1293:	
  1120  0330  120A  118A  24F1   	fcall	_keypad_read
              120A  118A         
  1121  0335  3AFF               	xorlw	0FFh
  1122  0336  1D03               	skipz
  1123  0337  2B39               	goto	u1011
  1124  0338  2B3A               	goto	u1010
  1125  0339                     u1011:
  1126  0339  2B30               	goto	l1293
  1127  033A                     u1010:
  1128  033A  2B3B               	goto	l1295
  1129                           	
  1130  033B                     l44:	
  1131                           	line	91
  1132                           	
  1133  033B                     l1295:	
  1134                           ;keypad.c: 91: return c_pressed_key;
  1135  033B  0872               	movf	(keypad_wait@c_pressed_key),w
  1136  033C  2B3D               	goto	l45
  1137                           	
  1138  033D                     l1297:	
  1139                           	line	92
  1140                           	
  1141  033D                     l45:	
  1142  033D  0008               	return
  1143                           	opt stack 0
  1144                           GLOBAL	__end_of_keypad_wait
  1145  033E                     	__end_of_keypad_wait:
  1146                           	signat	_keypad_wait,89
  1147                           	global	_keypad_read
  1148                           
  1149 ;; *************** function _keypad_read *****************
  1150 ;; Defined at:
  1151 ;;		line 19 in file "keypad.c"
  1152 ;; Parameters:    Size  Location     Type
  1153 ;;		None
  1154 ;; Auto vars:     Size  Location     Type
  1155 ;;		None
  1156 ;; Return value:  Size  Location     Type
  1157 ;;                  1    wreg      unsigned char 
  1158 ;; Registers used:
  1159 ;;		wreg
  1160 ;; Tracked objects:
  1161 ;;		On entry : 0/0
  1162 ;;		On exit  : 0/0
  1163 ;;		Unchanged: 0/0
  1164 ;; Data sizes:     COMMON   BANK0   BANK1   BANK3   BANK2
  1165 ;;      Params:         0       0       0       0       0
  1166 ;;      Locals:         0       0       0       0       0
  1167 ;;      Temps:          1       0       0       0       0
  1168 ;;      Totals:         1       0       0       0       0
  1169 ;;Total ram usage:        1 bytes
  1170 ;; Hardware stack levels used:    1
  1171 ;; This function calls:
  1172 ;;		Nothing
  1173 ;; This function is called by:
  1174 ;;		_keypad_wait
  1175 ;;		_main
  1176 ;; This function uses a non-reentrant model
  1177 ;;
  1178                           psect	text466,local,class=CODE,delta=2,merge=1
  1179                           global __ptext466
  1180  04F1                     __ptext466:
  1181                           psect	text466
  1182                           	file	"keypad.c"
  1183                           	line	19
  1184                           	global	__size_of_keypad_read
  1185  00A1                     	__size_of_keypad_read	equ	__end_of_keypad_read-_keypad_read
  1186                           	
  1187  04F1                     _keypad_read:	
  1188                           	opt	stack 7
  1189                           ; Regs used in _keypad_read: [wreg]
  1190                           	line	21
  1191                           	
  1192  04F1                     l1147:	
  1193                           ;keypad.c: 21: RA3 = 0;
  1194  04F1  1283               	bcf	status, 5	;RP0=0, select bank0
  1195  04F2  1303               	bcf	status, 6	;RP1=0, select bank0
  1196  04F3  1185               	bcf	(43/8),(43)&7	;volatile
  1197                           	line	22
  1198                           ;keypad.c: 22: RA2 = 1;
  1199  04F4  1505               	bsf	(42/8),(42)&7	;volatile
  1200                           	line	23
  1201                           ;keypad.c: 23: RA1 = 1;
  1202  04F5  1485               	bsf	(41/8),(41)&7	;volatile
  1203                           	line	24
  1204                           ;keypad.c: 24: RA0 = 1;
  1205  04F6  1405               	bsf	(40/8),(40)&7	;volatile
  1206                           	line	25
  1207                           	
  1208  04F7                     l1149:	
  1209                           ;keypad.c: 25: _delay((unsigned long)((30)*(20000000/4000000.0)));
  1210                           	opt asmopt_off
  1211  04F7  3031               movlw	49
  1212  04F8  00F0               movwf	(??_keypad_read+0)+0,f
  1213  04F9                     u1177:
  1214  04F9  0BF0               decfsz	(??_keypad_read+0)+0,f
  1215  04FA  2CF9               	goto	u1177
  1216  04FB  2CFC               	nop2	;nop
  1217                           opt asmopt_on
  1218                           
  1219                           	line	26
  1220                           	
  1221  04FC                     l1151:	
  1222                           ;keypad.c: 26: if (RC6 == 0) return '1';
  1223  04FC  1283               	bcf	status, 5	;RP0=0, select bank0
  1224  04FD  1303               	bcf	status, 6	;RP1=0, select bank0
  1225  04FE  1B07               	btfsc	(62/8),(62)&7	;volatile
  1226  04FF  2D01               	goto	u591
  1227  0500  2D02               	goto	u590
  1228  0501                     u591:
  1229  0501  2D05               	goto	l21
  1230  0502                     u590:
  1231                           	
  1232  0502                     l1153:	
  1233  0502  3031               	movlw	(031h)
  1234  0503  2D91               	goto	l22
  1235                           	
  1236  0504                     l1155:	
  1237  0504  2D91               	goto	l22
  1238                           	
  1239  0505                     l21:	
  1240                           	line	27
  1241                           ;keypad.c: 27: if (RC7 == 0) return '2';
  1242  0505  1B87               	btfsc	(63/8),(63)&7	;volatile
  1243  0506  2D08               	goto	u601
  1244  0507  2D09               	goto	u600
  1245  0508                     u601:
  1246  0508  2D0C               	goto	l23
  1247  0509                     u600:
  1248                           	
  1249  0509                     l1157:	
  1250  0509  3032               	movlw	(032h)
  1251  050A  2D91               	goto	l22
  1252                           	
  1253  050B                     l1159:	
  1254  050B  2D91               	goto	l22
  1255                           	
  1256  050C                     l23:	
  1257                           	line	28
  1258                           ;keypad.c: 28: if (RA5 == 0) return '3';
  1259  050C  1A85               	btfsc	(45/8),(45)&7	;volatile
  1260  050D  2D0F               	goto	u611
  1261  050E  2D10               	goto	u610
  1262  050F                     u611:
  1263  050F  2D13               	goto	l24
  1264  0510                     u610:
  1265                           	
  1266  0510                     l1161:	
  1267  0510  3033               	movlw	(033h)
  1268  0511  2D91               	goto	l22
  1269                           	
  1270  0512                     l1163:	
  1271  0512  2D91               	goto	l22
  1272                           	
  1273  0513                     l24:	
  1274                           	line	29
  1275                           ;keypad.c: 29: if (RA4 == 0) return 'A';
  1276  0513  1A05               	btfsc	(44/8),(44)&7	;volatile
  1277  0514  2D16               	goto	u621
  1278  0515  2D17               	goto	u620
  1279  0516                     u621:
  1280  0516  2D1A               	goto	l25
  1281  0517                     u620:
  1282                           	
  1283  0517                     l1165:	
  1284  0517  3041               	movlw	(041h)
  1285  0518  2D91               	goto	l22
  1286                           	
  1287  0519                     l1167:	
  1288  0519  2D91               	goto	l22
  1289                           	
  1290  051A                     l25:	
  1291                           	line	31
  1292                           ;keypad.c: 31: RA3 = 1;
  1293  051A  1585               	bsf	(43/8),(43)&7	;volatile
  1294                           	line	32
  1295                           ;keypad.c: 32: RA2 = 0;
  1296  051B  1105               	bcf	(42/8),(42)&7	;volatile
  1297                           	line	33
  1298                           ;keypad.c: 33: RA1 = 1;
  1299  051C  1485               	bsf	(41/8),(41)&7	;volatile
  1300                           	line	34
  1301                           ;keypad.c: 34: RA0 = 1;
  1302  051D  1405               	bsf	(40/8),(40)&7	;volatile
  1303                           	line	35
  1304                           	
  1305  051E                     l1169:	
  1306                           ;keypad.c: 35: _delay((unsigned long)((30)*(20000000/4000000.0)));
  1307                           	opt asmopt_off
  1308  051E  3031               movlw	49
  1309  051F  00F0               movwf	(??_keypad_read+0)+0,f
  1310  0520                     u1187:
  1311  0520  0BF0               decfsz	(??_keypad_read+0)+0,f
  1312  0521  2D20               	goto	u1187
  1313  0522  2D23               	nop2	;nop
  1314                           opt asmopt_on
  1315                           
  1316                           	line	36
  1317                           	
  1318  0523                     l1171:	
  1319                           ;keypad.c: 36: if (RC6 == 0) return '4';
  1320  0523  1283               	bcf	status, 5	;RP0=0, select bank0
  1321  0524  1303               	bcf	status, 6	;RP1=0, select bank0
  1322  0525  1B07               	btfsc	(62/8),(62)&7	;volatile
  1323  0526  2D28               	goto	u631
  1324  0527  2D29               	goto	u630
  1325  0528                     u631:
  1326  0528  2D2C               	goto	l26
  1327  0529                     u630:
  1328                           	
  1329  0529                     l1173:	
  1330  0529  3034               	movlw	(034h)
  1331  052A  2D91               	goto	l22
  1332                           	
  1333  052B                     l1175:	
  1334  052B  2D91               	goto	l22
  1335                           	
  1336  052C                     l26:	
  1337                           	line	37
  1338                           ;keypad.c: 37: if (RC7 == 0) return '5';
  1339  052C  1B87               	btfsc	(63/8),(63)&7	;volatile
  1340  052D  2D2F               	goto	u641
  1341  052E  2D30               	goto	u640
  1342  052F                     u641:
  1343  052F  2D33               	goto	l27
  1344  0530                     u640:
  1345                           	
  1346  0530                     l1177:	
  1347  0530  3035               	movlw	(035h)
  1348  0531  2D91               	goto	l22
  1349                           	
  1350  0532                     l1179:	
  1351  0532  2D91               	goto	l22
  1352                           	
  1353  0533                     l27:	
  1354                           	line	38
  1355                           ;keypad.c: 38: if (RA5 == 0) return '6';
  1356  0533  1A85               	btfsc	(45/8),(45)&7	;volatile
  1357  0534  2D36               	goto	u651
  1358  0535  2D37               	goto	u650
  1359  0536                     u651:
  1360  0536  2D3A               	goto	l28
  1361  0537                     u650:
  1362                           	
  1363  0537                     l1181:	
  1364  0537  3036               	movlw	(036h)
  1365  0538  2D91               	goto	l22
  1366                           	
  1367  0539                     l1183:	
  1368  0539  2D91               	goto	l22
  1369                           	
  1370  053A                     l28:	
  1371                           	line	39
  1372                           ;keypad.c: 39: if (RA4 == 0) return 'B';
  1373  053A  1A05               	btfsc	(44/8),(44)&7	;volatile
  1374  053B  2D3D               	goto	u661
  1375  053C  2D3E               	goto	u660
  1376  053D                     u661:
  1377  053D  2D41               	goto	l29
  1378  053E                     u660:
  1379                           	
  1380  053E                     l1185:	
  1381  053E  3042               	movlw	(042h)
  1382  053F  2D91               	goto	l22
  1383                           	
  1384  0540                     l1187:	
  1385  0540  2D91               	goto	l22
  1386                           	
  1387  0541                     l29:	
  1388                           	line	41
  1389                           ;keypad.c: 41: RA3 = 1;
  1390  0541  1585               	bsf	(43/8),(43)&7	;volatile
  1391                           	line	42
  1392                           ;keypad.c: 42: RA2 = 1;
  1393  0542  1505               	bsf	(42/8),(42)&7	;volatile
  1394                           	line	43
  1395                           ;keypad.c: 43: RA1 = 0;
  1396  0543  1085               	bcf	(41/8),(41)&7	;volatile
  1397                           	line	44
  1398                           ;keypad.c: 44: RA0 = 1;
  1399  0544  1405               	bsf	(40/8),(40)&7	;volatile
  1400                           	line	45
  1401                           	
  1402  0545                     l1189:	
  1403                           ;keypad.c: 45: _delay((unsigned long)((30)*(20000000/4000000.0)));
  1404                           	opt asmopt_off
  1405  0545  3031               movlw	49
  1406  0546  00F0               movwf	(??_keypad_read+0)+0,f
  1407  0547                     u1197:
  1408  0547  0BF0               decfsz	(??_keypad_read+0)+0,f
  1409  0548  2D47               	goto	u1197
  1410  0549  2D4A               	nop2	;nop
  1411                           opt asmopt_on
  1412                           
  1413                           	line	46
  1414                           	
  1415  054A                     l1191:	
  1416                           ;keypad.c: 46: if (RC6 == 0) return '7';
  1417  054A  1283               	bcf	status, 5	;RP0=0, select bank0
  1418  054B  1303               	bcf	status, 6	;RP1=0, select bank0
  1419  054C  1B07               	btfsc	(62/8),(62)&7	;volatile
  1420  054D  2D4F               	goto	u671
  1421  054E  2D50               	goto	u670
  1422  054F                     u671:
  1423  054F  2D53               	goto	l30
  1424  0550                     u670:
  1425                           	
  1426  0550                     l1193:	
  1427  0550  3037               	movlw	(037h)
  1428  0551  2D91               	goto	l22
  1429                           	
  1430  0552                     l1195:	
  1431  0552  2D91               	goto	l22
  1432                           	
  1433  0553                     l30:	
  1434                           	line	47
  1435                           ;keypad.c: 47: if (RC7 == 0) return '8';
  1436  0553  1B87               	btfsc	(63/8),(63)&7	;volatile
  1437  0554  2D56               	goto	u681
  1438  0555  2D57               	goto	u680
  1439  0556                     u681:
  1440  0556  2D5A               	goto	l31
  1441  0557                     u680:
  1442                           	
  1443  0557                     l1197:	
  1444  0557  3038               	movlw	(038h)
  1445  0558  2D91               	goto	l22
  1446                           	
  1447  0559                     l1199:	
  1448  0559  2D91               	goto	l22
  1449                           	
  1450  055A                     l31:	
  1451                           	line	48
  1452                           ;keypad.c: 48: if (RA5 == 0) return '9';
  1453  055A  1A85               	btfsc	(45/8),(45)&7	;volatile
  1454  055B  2D5D               	goto	u691
  1455  055C  2D5E               	goto	u690
  1456  055D                     u691:
  1457  055D  2D61               	goto	l32
  1458  055E                     u690:
  1459                           	
  1460  055E                     l1201:	
  1461  055E  3039               	movlw	(039h)
  1462  055F  2D91               	goto	l22
  1463                           	
  1464  0560                     l1203:	
  1465  0560  2D91               	goto	l22
  1466                           	
  1467  0561                     l32:	
  1468                           	line	49
  1469                           ;keypad.c: 49: if (RA4 == 0) return 'C';
  1470  0561  1A05               	btfsc	(44/8),(44)&7	;volatile
  1471  0562  2D64               	goto	u701
  1472  0563  2D65               	goto	u700
  1473  0564                     u701:
  1474  0564  2D68               	goto	l33
  1475  0565                     u700:
  1476                           	
  1477  0565                     l1205:	
  1478  0565  3043               	movlw	(043h)
  1479  0566  2D91               	goto	l22
  1480                           	
  1481  0567                     l1207:	
  1482  0567  2D91               	goto	l22
  1483                           	
  1484  0568                     l33:	
  1485                           	line	51
  1486                           ;keypad.c: 51: RA3 = 1;
  1487  0568  1585               	bsf	(43/8),(43)&7	;volatile
  1488                           	line	52
  1489                           ;keypad.c: 52: RA2 = 1;
  1490  0569  1505               	bsf	(42/8),(42)&7	;volatile
  1491                           	line	53
  1492                           ;keypad.c: 53: RA1 = 1;
  1493  056A  1485               	bsf	(41/8),(41)&7	;volatile
  1494                           	line	54
  1495                           ;keypad.c: 54: RA0 = 0;
  1496  056B  1005               	bcf	(40/8),(40)&7	;volatile
  1497                           	line	55
  1498                           	
  1499  056C                     l1209:	
  1500                           ;keypad.c: 55: _delay((unsigned long)((30)*(20000000/4000000.0)));
  1501                           	opt asmopt_off
  1502  056C  3031               movlw	49
  1503  056D  00F0               movwf	(??_keypad_read+0)+0,f
  1504  056E                     u1207:
  1505  056E  0BF0               decfsz	(??_keypad_read+0)+0,f
  1506  056F  2D6E               	goto	u1207
  1507  0570  2D71               	nop2	;nop
  1508                           opt asmopt_on
  1509                           
  1510                           	line	56
  1511                           	
  1512  0571                     l1211:	
  1513                           ;keypad.c: 56: if (RC6 == 0) return '*';
  1514  0571  1283               	bcf	status, 5	;RP0=0, select bank0
  1515  0572  1303               	bcf	status, 6	;RP1=0, select bank0
  1516  0573  1B07               	btfsc	(62/8),(62)&7	;volatile
  1517  0574  2D76               	goto	u711
  1518  0575  2D77               	goto	u710
  1519  0576                     u711:
  1520  0576  2D7A               	goto	l34
  1521  0577                     u710:
  1522                           	
  1523  0577                     l1213:	
  1524  0577  302A               	movlw	(02Ah)
  1525  0578  2D91               	goto	l22
  1526                           	
  1527  0579                     l1215:	
  1528  0579  2D91               	goto	l22
  1529                           	
  1530  057A                     l34:	
  1531                           	line	57
  1532                           ;keypad.c: 57: if (RC7 == 0) return '0';
  1533  057A  1B87               	btfsc	(63/8),(63)&7	;volatile
  1534  057B  2D7D               	goto	u721
  1535  057C  2D7E               	goto	u720
  1536  057D                     u721:
  1537  057D  2D81               	goto	l35
  1538  057E                     u720:
  1539                           	
  1540  057E                     l1217:	
  1541  057E  3030               	movlw	(030h)
  1542  057F  2D91               	goto	l22
  1543                           	
  1544  0580                     l1219:	
  1545  0580  2D91               	goto	l22
  1546                           	
  1547  0581                     l35:	
  1548                           	line	58
  1549                           ;keypad.c: 58: if (RA5 == 0) return '#';
  1550  0581  1A85               	btfsc	(45/8),(45)&7	;volatile
  1551  0582  2D84               	goto	u731
  1552  0583  2D85               	goto	u730
  1553  0584                     u731:
  1554  0584  2D88               	goto	l36
  1555  0585                     u730:
  1556                           	
  1557  0585                     l1221:	
  1558  0585  3023               	movlw	(023h)
  1559  0586  2D91               	goto	l22
  1560                           	
  1561  0587                     l1223:	
  1562  0587  2D91               	goto	l22
  1563                           	
  1564  0588                     l36:	
  1565                           	line	59
  1566                           ;keypad.c: 59: if (RA4 == 0) return 'D';
  1567  0588  1A05               	btfsc	(44/8),(44)&7	;volatile
  1568  0589  2D8B               	goto	u741
  1569  058A  2D8C               	goto	u740
  1570  058B                     u741:
  1571  058B  2D8F               	goto	l1229
  1572  058C                     u740:
  1573                           	
  1574  058C                     l1225:	
  1575  058C  3044               	movlw	(044h)
  1576  058D  2D91               	goto	l22
  1577                           	
  1578  058E                     l1227:	
  1579  058E  2D91               	goto	l22
  1580                           	
  1581  058F                     l37:	
  1582                           	line	61
  1583                           	
  1584  058F                     l1229:	
  1585                           ;keypad.c: 61: return 0xFF;
  1586  058F  30FF               	movlw	(0FFh)
  1587  0590  2D91               	goto	l22
  1588                           	
  1589  0591                     l1231:	
  1590                           	line	62
  1591                           	
  1592  0591                     l22:	
  1593  0591  0008               	return
  1594                           	opt stack 0
  1595                           GLOBAL	__end_of_keypad_read
  1596  0592                     	__end_of_keypad_read:
  1597                           	signat	_keypad_read,89
  1598                           	global	_LCD_putstr
  1599                           
  1600 ;; *************** function _LCD_putstr *****************
  1601 ;; Defined at:
  1602 ;;		line 150 in file "lcd.c"
  1603 ;; Parameters:    Size  Location     Type
  1604 ;;  csz_string      1    wreg     PTR unsigned char 
  1605 ;;		 -> STR_3(5), STR_2(9), STR_1(9), 
  1606 ;; Auto vars:     Size  Location     Type
  1607 ;;  csz_string      1    5[COMMON] PTR unsigned char 
  1608 ;;		 -> STR_3(5), STR_2(9), STR_1(9), 
  1609 ;; Return value:  Size  Location     Type
  1610 ;;		None               void
  1611 ;; Registers used:
  1612 ;;		wreg, fsr0l, fsr0h, status,2, status,0, pclath, cstack
  1613 ;; Tracked objects:
  1614 ;;		On entry : 0/0
  1615 ;;		On exit  : 0/0
  1616 ;;		Unchanged: 0/0
  1617 ;; Data sizes:     COMMON   BANK0   BANK1   BANK3   BANK2
  1618 ;;      Params:         0       0       0       0       0
  1619 ;;      Locals:         1       0       0       0       0
  1620 ;;      Temps:          1       0       0       0       0
  1621 ;;      Totals:         2       0       0       0       0
  1622 ;;Total ram usage:        2 bytes
  1623 ;; Hardware stack levels used:    1
  1624 ;; Hardware stack levels required when called:    2
  1625 ;; This function calls:
  1626 ;;		_LCD_senddata
  1627 ;; This function is called by:
  1628 ;;		_main
  1629 ;; This function uses a non-reentrant model
  1630 ;;
  1631                           psect	text467,local,class=CODE,delta=2,merge=1
  1632                           global __ptext467
  1633  02B1                     __ptext467:
  1634                           psect	text467
  1635                           	file	"lcd.c"
  1636                           	line	150
  1637                           	global	__size_of_LCD_putstr
  1638  0021                     	__size_of_LCD_putstr	equ	__end_of_LCD_putstr-_LCD_putstr
  1639                           	
  1640  02B1                     _LCD_putstr:	
  1641                           	opt	stack 5
  1642                           ; Regs used in _LCD_putstr: [wreg-fsr0h+status,2+status,0+pclath+cstack]
  1643                           ;LCD_putstr@csz_string stored from wreg
  1644  02B1  00F5               	movwf	(LCD_putstr@csz_string)
  1645                           	line	152
  1646                           	
  1647  02B2                     l1463:	
  1648                           ;lcd.c: 152: while (*csz_string != '\0')
  1649  02B2  2AC4               	goto	l1469
  1650                           	
  1651  02B3                     l77:	
  1652                           	line	154
  1653                           	
  1654  02B3                     l1465:	
  1655                           ;lcd.c: 153: {
  1656                           ;lcd.c: 154: LCD_senddata(*csz_string);
  1657  02B3  0875               	movf	(LCD_putstr@csz_string),w
  1658  02B4  0084               	movwf	fsr0
  1659  02B5  120A  118A  200D   	fcall	stringdir
              120A  118A         
  1660  02BA  120A  118A  2244   	fcall	_LCD_senddata
              120A  118A         
  1661                           	line	155
  1662                           	
  1663  02BF                     l1467:	
  1664                           ;lcd.c: 155: csz_string++;
  1665  02BF  3001               	movlw	(01h)
  1666  02C0  00F4               	movwf	(??_LCD_putstr+0)+0
  1667  02C1  0874               	movf	(??_LCD_putstr+0)+0,w
  1668  02C2  07F5               	addwf	(LCD_putstr@csz_string),f
  1669  02C3  2AC4               	goto	l1469
  1670                           	line	156
  1671                           	
  1672  02C4                     l76:	
  1673                           	line	152
  1674                           	
  1675  02C4                     l1469:	
  1676  02C4  0875               	movf	(LCD_putstr@csz_string),w
  1677  02C5  0084               	movwf	fsr0
  1678  02C6  120A  118A  200D   	fcall	stringdir
              120A  118A         
  1679  02CB  3800               	iorlw	0
  1680  02CC  1D03               	skipz
  1681  02CD  2ACF               	goto	u1051
  1682  02CE  2AD0               	goto	u1050
  1683  02CF                     u1051:
  1684  02CF  2AB3               	goto	l1465
  1685  02D0                     u1050:
  1686  02D0  2AD1               	goto	l79
  1687                           	
  1688  02D1                     l78:	
  1689                           	line	157
  1690                           	
  1691  02D1                     l79:	
  1692  02D1  0008               	return
  1693                           	opt stack 0
  1694                           GLOBAL	__end_of_LCD_putstr
  1695  02D2                     	__end_of_LCD_putstr:
  1696                           	signat	_LCD_putstr,4216
  1697                           	global	_LCD_putchar
  1698                           
  1699 ;; *************** function _LCD_putchar *****************
  1700 ;; Defined at:
  1701 ;;		line 172 in file "lcd.c"
  1702 ;; Parameters:    Size  Location     Type
  1703 ;;  c_data          1    wreg     unsigned char 
  1704 ;; Auto vars:     Size  Location     Type
  1705 ;;  c_data          1    4[COMMON] unsigned char 
  1706 ;; Return value:  Size  Location     Type
  1707 ;;		None               void
  1708 ;; Registers used:
  1709 ;;		wreg, status,2, status,0, pclath, cstack
  1710 ;; Tracked objects:
  1711 ;;		On entry : 0/0
  1712 ;;		On exit  : 0/0
  1713 ;;		Unchanged: 0/0
  1714 ;; Data sizes:     COMMON   BANK0   BANK1   BANK3   BANK2
  1715 ;;      Params:         0       0       0       0       0
  1716 ;;      Locals:         1       0       0       0       0
  1717 ;;      Temps:          0       0       0       0       0
  1718 ;;      Totals:         1       0       0       0       0
  1719 ;;Total ram usage:        1 bytes
  1720 ;; Hardware stack levels used:    1
  1721 ;; Hardware stack levels required when called:    2
  1722 ;; This function calls:
  1723 ;;		_LCD_senddata
  1724 ;; This function is called by:
  1725 ;;		_main
  1726 ;; This function uses a non-reentrant model
  1727 ;;
  1728                           psect	text468,local,class=CODE,delta=2,merge=1
  1729                           global __ptext468
  1730  0231                     __ptext468:
  1731                           psect	text468
  1732                           	file	"lcd.c"
  1733                           	line	172
  1734                           	global	__size_of_LCD_putchar
  1735  0008                     	__size_of_LCD_putchar	equ	__end_of_LCD_putchar-_LCD_putchar
  1736                           	
  1737  0231                     _LCD_putchar:	
  1738                           	opt	stack 5
  1739                           ; Regs used in _LCD_putchar: [wreg+status,2+status,0+pclath+cstack]
  1740                           ;LCD_putchar@c_data stored from wreg
  1741                           	line	174
  1742  0231  00F4               	movwf	(LCD_putchar@c_data)
  1743                           	
  1744  0232                     l1471:	
  1745                           ;lcd.c: 174: LCD_senddata(c_data);
  1746  0232  0874               	movf	(LCD_putchar@c_data),w
  1747  0233  120A  118A  2244   	fcall	_LCD_senddata
              120A  118A         
  1748                           	line	175
  1749                           	
  1750  0238                     l82:	
  1751  0238  0008               	return
  1752                           	opt stack 0
  1753                           GLOBAL	__end_of_LCD_putchar
  1754  0239                     	__end_of_LCD_putchar:
  1755                           	signat	_LCD_putchar,4216
  1756                           	global	_LCD_senddata
  1757                           
  1758 ;; *************** function _LCD_senddata *****************
  1759 ;; Defined at:
  1760 ;;		line 132 in file "lcd.c"
  1761 ;; Parameters:    Size  Location     Type
  1762 ;;  var             1    wreg     unsigned char 
  1763 ;; Auto vars:     Size  Location     Type
  1764 ;;  var             1    3[COMMON] unsigned char 
  1765 ;; Return value:  Size  Location     Type
  1766 ;;		None               void
  1767 ;; Registers used:
  1768 ;;		wreg, status,2, status,0, pclath, cstack
  1769 ;; Tracked objects:
  1770 ;;		On entry : 0/0
  1771 ;;		On exit  : 0/0
  1772 ;;		Unchanged: 0/0
  1773 ;; Data sizes:     COMMON   BANK0   BANK1   BANK3   BANK2
  1774 ;;      Params:         0       0       0       0       0
  1775 ;;      Locals:         1       0       0       0       0
  1776 ;;      Temps:          0       0       0       0       0
  1777 ;;      Totals:         1       0       0       0       0
  1778 ;;Total ram usage:        1 bytes
  1779 ;; Hardware stack levels used:    1
  1780 ;; Hardware stack levels required when called:    1
  1781 ;; This function calls:
  1782 ;;		_LCD_4bitsend
  1783 ;; This function is called by:
  1784 ;;		_LCD_putstr
  1785 ;;		_LCD_putchar
  1786 ;; This function uses a non-reentrant model
  1787 ;;
  1788                           psect	text469,local,class=CODE,delta=2,merge=1
  1789                           global __ptext469
  1790  0244                     __ptext469:
  1791                           psect	text469
  1792                           	file	"lcd.c"
  1793                           	line	132
  1794                           	global	__size_of_LCD_senddata
  1795  000B                     	__size_of_LCD_senddata	equ	__end_of_LCD_senddata-_LCD_senddata
  1796                           	
  1797  0244                     _LCD_senddata:	
  1798                           	opt	stack 5
  1799                           ; Regs used in _LCD_senddata: [wreg+status,2+status,0+pclath+cstack]
  1800                           ;LCD_senddata@var stored from wreg
  1801  0244  00F3               	movwf	(LCD_senddata@var)
  1802                           	line	133
  1803                           	
  1804  0245                     l1303:	
  1805                           ;lcd.c: 133: RB2 = 1;
  1806  0245  1283               	bcf	status, 5	;RP0=0, select bank0
  1807  0246  1303               	bcf	status, 6	;RP1=0, select bank0
  1808  0247  1506               	bsf	(50/8),(50)&7	;volatile
  1809                           	line	134
  1810                           	
  1811  0248                     l1305:	
  1812                           ;lcd.c: 134: LCD_4bitsend(var);
  1813  0248  0873               	movf	(LCD_senddata@var),w
  1814  0249  120A  118A  2592   	fcall	_LCD_4bitsend
              120A  118A         
  1815                           	line	135
  1816                           	
  1817  024E                     l73:	
  1818  024E  0008               	return
  1819                           	opt stack 0
  1820                           GLOBAL	__end_of_LCD_senddata
  1821  024F                     	__end_of_LCD_senddata:
  1822                           	signat	_LCD_senddata,4216
  1823                           	global	_LCD_goto
  1824                           
  1825 ;; *************** function _LCD_goto *****************
  1826 ;; Defined at:
  1827 ;;		line 209 in file "lcd.c"
  1828 ;; Parameters:    Size  Location     Type
  1829 ;;  row             1    wreg     unsigned char 
  1830 ;;  column          1    4[COMMON] unsigned char 
  1831 ;; Auto vars:     Size  Location     Type
  1832 ;;  row             1    5[COMMON] unsigned char 
  1833 ;; Return value:  Size  Location     Type
  1834 ;;		None               void
  1835 ;; Registers used:
  1836 ;;		wreg, status,2, status,0, pclath, cstack
  1837 ;; Tracked objects:
  1838 ;;		On entry : 0/0
  1839 ;;		On exit  : 0/0
  1840 ;;		Unchanged: 0/0
  1841 ;; Data sizes:     COMMON   BANK0   BANK1   BANK3   BANK2
  1842 ;;      Params:         1       0       0       0       0
  1843 ;;      Locals:         1       0       0       0       0
  1844 ;;      Temps:          0       0       0       0       0
  1845 ;;      Totals:         2       0       0       0       0
  1846 ;;Total ram usage:        2 bytes
  1847 ;; Hardware stack levels used:    1
  1848 ;; Hardware stack levels required when called:    2
  1849 ;; This function calls:
  1850 ;;		_LCD_command
  1851 ;; This function is called by:
  1852 ;;		_main
  1853 ;; This function uses a non-reentrant model
  1854 ;;
  1855                           psect	text470,local,class=CODE,delta=2,merge=1
  1856                           global __ptext470
  1857  029A                     __ptext470:
  1858                           psect	text470
  1859                           	file	"lcd.c"
  1860                           	line	209
  1861                           	global	__size_of_LCD_goto
  1862  0017                     	__size_of_LCD_goto	equ	__end_of_LCD_goto-_LCD_goto
  1863                           	
  1864  029A                     _LCD_goto:	
  1865                           	opt	stack 5
  1866                           ; Regs used in _LCD_goto: [wreg+status,2+status,0+pclath+cstack]
  1867                           ;LCD_goto@row stored from wreg
  1868  029A  00F5               	movwf	(LCD_goto@row)
  1869                           	line	210
  1870                           	
  1871  029B                     l1473:	
  1872                           ;lcd.c: 210: if(row == 0)
  1873  029B  08F5               	movf	(LCD_goto@row),f
  1874  029C  1D03               	skipz
  1875  029D  2A9F               	goto	u1061
  1876  029E  2AA0               	goto	u1060
  1877  029F                     u1061:
  1878  029F  2AA8               	goto	l1477
  1879  02A0                     u1060:
  1880                           	line	211
  1881                           	
  1882  02A0                     l1475:	
  1883                           ;lcd.c: 211: LCD_command(0x80 | column);
  1884  02A0  0874               	movf	(LCD_goto@column),w
  1885  02A1  3880               	iorlw	080h
  1886  02A2  120A  118A  2239   	fcall	_LCD_command
              120A  118A         
  1887  02A7  2AB0               	goto	l90
  1888                           	line	212
  1889                           	
  1890  02A8                     l88:	
  1891                           	line	213
  1892                           	
  1893  02A8                     l1477:	
  1894                           ;lcd.c: 212: else
  1895                           ;lcd.c: 213: LCD_command(0x80 | 0x40 | column);
  1896  02A8  0874               	movf	(LCD_goto@column),w
  1897  02A9  38C0               	iorlw	0C0h
  1898  02AA  120A  118A  2239   	fcall	_LCD_command
              120A  118A         
  1899  02AF  2AB0               	goto	l90
  1900                           	
  1901  02B0                     l89:	
  1902                           	line	214
  1903                           	
  1904  02B0                     l90:	
  1905  02B0  0008               	return
  1906                           	opt stack 0
  1907                           GLOBAL	__end_of_LCD_goto
  1908  02B1                     	__end_of_LCD_goto:
  1909                           	signat	_LCD_goto,8312
  1910                           	global	_initialzie
  1911                           
  1912 ;; *************** function _initialzie *****************
  1913 ;; Defined at:
  1914 ;;		line 82 in file "main.c"
  1915 ;; Parameters:    Size  Location     Type
  1916 ;;		None
  1917 ;; Auto vars:     Size  Location     Type
  1918 ;;		None
  1919 ;; Return value:  Size  Location     Type
  1920 ;;		None               void
  1921 ;; Registers used:
  1922 ;;		wreg, fsr0l, fsr0h, status,2, status,0, btemp+1, pclath, cstack
  1923 ;; Tracked objects:
  1924 ;;		On entry : 0/0
  1925 ;;		On exit  : 0/0
  1926 ;;		Unchanged: 0/0
  1927 ;; Data sizes:     COMMON   BANK0   BANK1   BANK3   BANK2
  1928 ;;      Params:         0       0       0       0       0
  1929 ;;      Locals:         0       0       0       0       0
  1930 ;;      Temps:          0       0       0       0       0
  1931 ;;      Totals:         0       0       0       0       0
  1932 ;;Total ram usage:        0 bytes
  1933 ;; Hardware stack levels used:    1
  1934 ;; Hardware stack levels required when called:    3
  1935 ;; This function calls:
  1936 ;;		_vInitSpi
  1937 ;;		_vInitNrf24l01
  1938 ;;		_LCD_initialize
  1939 ;; This function is called by:
  1940 ;;		_main
  1941 ;; This function uses a non-reentrant model
  1942 ;;
  1943                           psect	text471,local,class=CODE,delta=2,merge=1
  1944                           global __ptext471
  1945  033E                     __ptext471:
  1946                           psect	text471
  1947                           	file	"main.c"
  1948                           	line	82
  1949                           	global	__size_of_initialzie
  1950  0026                     	__size_of_initialzie	equ	__end_of_initialzie-_initialzie
  1951                           	
  1952  033E                     _initialzie:	
  1953                           	opt	stack 4
  1954                           ; Regs used in _initialzie: [wreg-fsr0h+status,2+status,0+btemp+1+pclath+cstack]
  1955                           	line	84
  1956                           	
  1957  033E                     l1495:	
  1958                           ;main.c: 84: ADCON1 = 0x06;
  1959  033E  3006               	movlw	(06h)
  1960  033F  1683               	bsf	status, 5	;RP0=1, select bank1
  1961  0340  1303               	bcf	status, 6	;RP1=0, select bank1
  1962  0341  009F               	movwf	(159)^080h	;volatile
  1963                           	line	87
  1964                           	
  1965  0342                     l1497:	
  1966                           ;main.c: 87: TRISA0 = 0;
  1967  0342  1005               	bcf	(1064/8)^080h,(1064)&7	;volatile
  1968                           	line	88
  1969                           	
  1970  0343                     l1499:	
  1971                           ;main.c: 88: TRISA1 = 0;
  1972  0343  1085               	bcf	(1065/8)^080h,(1065)&7	;volatile
  1973                           	line	89
  1974                           	
  1975  0344                     l1501:	
  1976                           ;main.c: 89: TRISA2 = 0;
  1977  0344  1105               	bcf	(1066/8)^080h,(1066)&7	;volatile
  1978                           	line	90
  1979                           	
  1980  0345                     l1503:	
  1981                           ;main.c: 90: TRISA3 = 0;
  1982  0345  1185               	bcf	(1067/8)^080h,(1067)&7	;volatile
  1983                           	line	91
  1984                           	
  1985  0346                     l1505:	
  1986                           ;main.c: 91: TRISA4 = 1;
  1987  0346  1605               	bsf	(1068/8)^080h,(1068)&7	;volatile
  1988                           	line	92
  1989                           	
  1990  0347                     l1507:	
  1991                           ;main.c: 92: TRISA5 = 1;
  1992  0347  1685               	bsf	(1069/8)^080h,(1069)&7	;volatile
  1993                           	line	93
  1994                           ;main.c: 93: TRISB = 0b00000001;
  1995  0348  3001               	movlw	(01h)
  1996  0349  0086               	movwf	(134)^080h	;volatile
  1997                           	line	94
  1998                           ;main.c: 94: TRISC = 0b11010100;
  1999  034A  30D4               	movlw	(0D4h)
  2000  034B  0087               	movwf	(135)^080h	;volatile
  2001                           	line	97
  2002                           	
  2003  034C                     l1509:	
  2004                           ;main.c: 97: PORTA = 0;
  2005  034C  1283               	bcf	status, 5	;RP0=0, select bank0
  2006  034D  1303               	bcf	status, 6	;RP1=0, select bank0
  2007  034E  0185               	clrf	(5)	;volatile
  2008                           	line	98
  2009                           	
  2010  034F                     l1511:	
  2011                           ;main.c: 98: PORTB = 0;
  2012  034F  0186               	clrf	(6)	;volatile
  2013                           	line	99
  2014                           	
  2015  0350                     l1513:	
  2016                           ;main.c: 99: PORTC = 0;
  2017  0350  0187               	clrf	(7)	;volatile
  2018                           	line	101
  2019                           	
  2020  0351                     l1515:	
  2021                           ;main.c: 101: PORTBbits.RB1 = 0;
  2022  0351  1086               	bcf	(6),1	;volatile
  2023                           	line	103
  2024                           	
  2025  0352                     l1517:	
  2026                           ;main.c: 103: PORTCbits.RC0 = 0;
  2027  0352  1007               	bcf	(7),0	;volatile
  2028                           	line	104
  2029                           	
  2030  0353                     l1519:	
  2031                           ;main.c: 104: PORTCbits.RC1 = 1;
  2032  0353  1487               	bsf	(7),1	;volatile
  2033                           	line	107
  2034                           	
  2035  0354                     l1521:	
  2036                           ;main.c: 107: vInitSpi();
  2037  0354  120A  118A  224F   	fcall	_vInitSpi
              120A  118A         
  2038                           	line	109
  2039                           	
  2040  0359                     l1523:	
  2041                           ;main.c: 109: vInitNrf24l01();
  2042  0359  120A  118A  26FA   	fcall	_vInitNrf24l01
              120A  118A         
  2043                           	line	111
  2044                           	
  2045  035E                     l1525:	
  2046                           ;main.c: 111: LCD_initialize();
  2047  035E  120A  118A  245D   	fcall	_LCD_initialize
              120A  118A         
  2048                           	line	112
  2049                           	
  2050  0363                     l163:	
  2051  0363  0008               	return
  2052                           	opt stack 0
  2053                           GLOBAL	__end_of_initialzie
  2054  0364                     	__end_of_initialzie:
  2055                           	signat	_initialzie,88
  2056                           	global	_LCD_initialize
  2057                           
  2058 ;; *************** function _LCD_initialize *****************
  2059 ;; Defined at:
  2060 ;;		line 69 in file "lcd.c"
  2061 ;; Parameters:    Size  Location     Type
  2062 ;;		None
  2063 ;; Auto vars:     Size  Location     Type
  2064 ;;		None
  2065 ;; Return value:  Size  Location     Type
  2066 ;;		None               void
  2067 ;; Registers used:
  2068 ;;		wreg, status,2, status,0, pclath, cstack
  2069 ;; Tracked objects:
  2070 ;;		On entry : 0/0
  2071 ;;		On exit  : 0/0
  2072 ;;		Unchanged: 0/0
  2073 ;; Data sizes:     COMMON   BANK0   BANK1   BANK3   BANK2
  2074 ;;      Params:         0       0       0       0       0
  2075 ;;      Locals:         0       0       0       0       0
  2076 ;;      Temps:          2       0       0       0       0
  2077 ;;      Totals:         2       0       0       0       0
  2078 ;;Total ram usage:        2 bytes
  2079 ;; Hardware stack levels used:    1
  2080 ;; Hardware stack levels required when called:    2
  2081 ;; This function calls:
  2082 ;;		_LCD_command
  2083 ;; This function is called by:
  2084 ;;		_initialzie
  2085 ;; This function uses a non-reentrant model
  2086 ;;
  2087                           psect	text472,local,class=CODE,delta=2,merge=1
  2088                           global __ptext472
  2089  045D                     __ptext472:
  2090                           psect	text472
  2091                           	file	"lcd.c"
  2092                           	line	69
  2093                           	global	__size_of_LCD_initialize
  2094  0094                     	__size_of_LCD_initialize	equ	__end_of_LCD_initialize-_LCD_initialize
  2095                           	
  2096  045D                     _LCD_initialize:	
  2097                           	opt	stack 4
  2098                           ; Regs used in _LCD_initialize: [wreg+status,2+status,0+pclath+cstack]
  2099                           	line	70
  2100                           	
  2101  045D                     l1399:	
  2102                           ;lcd.c: 70: _delay((unsigned long)((30)*(20000000/4000.0)));
  2103                           	opt asmopt_off
  2104  045D  30C3               movlw	195
  2105  045E  00F5               movwf	((??_LCD_initialize+0)+0+1),f
  2106  045F  30CD               	movlw	205
  2107  0460  00F4               movwf	((??_LCD_initialize+0)+0),f
  2108  0461                     u1217:
  2109  0461  0BF4               	decfsz	((??_LCD_initialize+0)+0),f
  2110  0462  2C61               	goto	u1217
  2111  0463  0BF5               	decfsz	((??_LCD_initialize+0)+0+1),f
  2112  0464  2C61               	goto	u1217
  2113                           opt asmopt_on
  2114                           
  2115                           	line	72
  2116                           	
  2117  0465                     l1401:	
  2118                           ;lcd.c: 72: RB3 = 1;
  2119  0465  1283               	bcf	status, 5	;RP0=0, select bank0
  2120  0466  1303               	bcf	status, 6	;RP1=0, select bank0
  2121  0467  1586               	bsf	(51/8),(51)&7	;volatile
  2122                           	line	73
  2123                           ;lcd.c: 73: _delay((unsigned long)((20)*(20000000/4000.0)));
  2124                           	opt asmopt_off
  2125  0468  3082               movlw	130
  2126  0469  00F5               movwf	((??_LCD_initialize+0)+0+1),f
  2127  046A  30DD               	movlw	221
  2128  046B  00F4               movwf	((??_LCD_initialize+0)+0),f
  2129  046C                     u1227:
  2130  046C  0BF4               	decfsz	((??_LCD_initialize+0)+0),f
  2131  046D  2C6C               	goto	u1227
  2132  046E  0BF5               	decfsz	((??_LCD_initialize+0)+0+1),f
  2133  046F  2C6C               	goto	u1227
  2134  0470  2C71               	nop2
  2135                           opt asmopt_on
  2136                           
  2137                           	line	74
  2138                           	
  2139  0471                     l1403:	
  2140                           ;lcd.c: 74: RB3 = 0;
  2141  0471  1283               	bcf	status, 5	;RP0=0, select bank0
  2142  0472  1303               	bcf	status, 6	;RP1=0, select bank0
  2143  0473  1186               	bcf	(51/8),(51)&7	;volatile
  2144                           	line	75
  2145                           	
  2146  0474                     l1405:	
  2147                           ;lcd.c: 75: RB2 = 0;
  2148  0474  1106               	bcf	(50/8),(50)&7	;volatile
  2149                           	line	76
  2150                           	
  2151  0475                     l1407:	
  2152                           ;lcd.c: 76: RB7 = 0;
  2153  0475  1386               	bcf	(55/8),(55)&7	;volatile
  2154                           	line	77
  2155                           	
  2156  0476                     l1409:	
  2157                           ;lcd.c: 77: RB6 = 0;
  2158  0476  1306               	bcf	(54/8),(54)&7	;volatile
  2159                           	line	78
  2160                           	
  2161  0477                     l1411:	
  2162                           ;lcd.c: 78: RB5 = 1;
  2163  0477  1686               	bsf	(53/8),(53)&7	;volatile
  2164                           	line	79
  2165                           	
  2166  0478                     l1413:	
  2167                           ;lcd.c: 79: RB4 = 1;
  2168  0478  1606               	bsf	(52/8),(52)&7	;volatile
  2169                           	line	80
  2170                           	
  2171  0479                     l1415:	
  2172                           ;lcd.c: 80: RB3 = 1;
  2173  0479  1586               	bsf	(51/8),(51)&7	;volatile
  2174                           	line	81
  2175                           ;lcd.c: 81: _delay((unsigned long)((2)*(20000000/4000.0)));
  2176                           	opt asmopt_off
  2177  047A  300D               movlw	13
  2178  047B  00F5               movwf	((??_LCD_initialize+0)+0+1),f
  2179  047C  30FB               	movlw	251
  2180  047D  00F4               movwf	((??_LCD_initialize+0)+0),f
  2181  047E                     u1237:
  2182  047E  0BF4               	decfsz	((??_LCD_initialize+0)+0),f
  2183  047F  2C7E               	goto	u1237
  2184  0480  0BF5               	decfsz	((??_LCD_initialize+0)+0+1),f
  2185  0481  2C7E               	goto	u1237
  2186  0482  2C83               	nop2
  2187                           opt asmopt_on
  2188                           
  2189                           	line	82
  2190                           	
  2191  0483                     l1417:	
  2192                           ;lcd.c: 82: RB3 = 0;
  2193  0483  1283               	bcf	status, 5	;RP0=0, select bank0
  2194  0484  1303               	bcf	status, 6	;RP1=0, select bank0
  2195  0485  1186               	bcf	(51/8),(51)&7	;volatile
  2196                           	line	85
  2197                           	
  2198  0486                     l1419:	
  2199                           ;lcd.c: 85: RB7 = 0;
  2200  0486  1386               	bcf	(55/8),(55)&7	;volatile
  2201                           	line	86
  2202                           	
  2203  0487                     l1421:	
  2204                           ;lcd.c: 86: RB6 = 0;
  2205  0487  1306               	bcf	(54/8),(54)&7	;volatile
  2206                           	line	87
  2207                           	
  2208  0488                     l1423:	
  2209                           ;lcd.c: 87: RB5 = 1;
  2210  0488  1686               	bsf	(53/8),(53)&7	;volatile
  2211                           	line	88
  2212                           	
  2213  0489                     l1425:	
  2214                           ;lcd.c: 88: RB4 = 1;
  2215  0489  1606               	bsf	(52/8),(52)&7	;volatile
  2216                           	line	89
  2217                           	
  2218  048A                     l1427:	
  2219                           ;lcd.c: 89: RB3 = 1;
  2220  048A  1586               	bsf	(51/8),(51)&7	;volatile
  2221                           	line	90
  2222                           ;lcd.c: 90: _delay((unsigned long)((2)*(20000000/4000.0)));
  2223                           	opt asmopt_off
  2224  048B  300D               movlw	13
  2225  048C  00F5               movwf	((??_LCD_initialize+0)+0+1),f
  2226  048D  30FB               	movlw	251
  2227  048E  00F4               movwf	((??_LCD_initialize+0)+0),f
  2228  048F                     u1247:
  2229  048F  0BF4               	decfsz	((??_LCD_initialize+0)+0),f
  2230  0490  2C8F               	goto	u1247
  2231  0491  0BF5               	decfsz	((??_LCD_initialize+0)+0+1),f
  2232  0492  2C8F               	goto	u1247
  2233  0493  2C94               	nop2
  2234                           opt asmopt_on
  2235                           
  2236                           	line	91
  2237                           	
  2238  0494                     l1429:	
  2239                           ;lcd.c: 91: RB3 = 0;
  2240  0494  1283               	bcf	status, 5	;RP0=0, select bank0
  2241  0495  1303               	bcf	status, 6	;RP1=0, select bank0
  2242  0496  1186               	bcf	(51/8),(51)&7	;volatile
  2243                           	line	92
  2244                           ;lcd.c: 92: _delay((unsigned long)((2)*(20000000/4000.0)));
  2245                           	opt asmopt_off
  2246  0497  300D               movlw	13
  2247  0498  00F5               movwf	((??_LCD_initialize+0)+0+1),f
  2248  0499  30FB               	movlw	251
  2249  049A  00F4               movwf	((??_LCD_initialize+0)+0),f
  2250  049B                     u1257:
  2251  049B  0BF4               	decfsz	((??_LCD_initialize+0)+0),f
  2252  049C  2C9B               	goto	u1257
  2253  049D  0BF5               	decfsz	((??_LCD_initialize+0)+0+1),f
  2254  049E  2C9B               	goto	u1257
  2255  049F  2CA0               	nop2
  2256                           opt asmopt_on
  2257                           
  2258                           	line	94
  2259                           	
  2260  04A0                     l1431:	
  2261                           ;lcd.c: 94: RB7 = 0;
  2262  04A0  1283               	bcf	status, 5	;RP0=0, select bank0
  2263  04A1  1303               	bcf	status, 6	;RP1=0, select bank0
  2264  04A2  1386               	bcf	(55/8),(55)&7	;volatile
  2265                           	line	95
  2266                           	
  2267  04A3                     l1433:	
  2268                           ;lcd.c: 95: RB6 = 0;
  2269  04A3  1306               	bcf	(54/8),(54)&7	;volatile
  2270                           	line	96
  2271                           	
  2272  04A4                     l1435:	
  2273                           ;lcd.c: 96: RB5 = 1;
  2274  04A4  1686               	bsf	(53/8),(53)&7	;volatile
  2275                           	line	97
  2276                           	
  2277  04A5                     l1437:	
  2278                           ;lcd.c: 97: RB4 = 1;
  2279  04A5  1606               	bsf	(52/8),(52)&7	;volatile
  2280                           	line	98
  2281                           	
  2282  04A6                     l1439:	
  2283                           ;lcd.c: 98: RB3 = 1;
  2284  04A6  1586               	bsf	(51/8),(51)&7	;volatile
  2285                           	line	99
  2286                           ;lcd.c: 99: _delay((unsigned long)((2)*(20000000/4000.0)));
  2287                           	opt asmopt_off
  2288  04A7  300D               movlw	13
  2289  04A8  00F5               movwf	((??_LCD_initialize+0)+0+1),f
  2290  04A9  30FB               	movlw	251
  2291  04AA  00F4               movwf	((??_LCD_initialize+0)+0),f
  2292  04AB                     u1267:
  2293  04AB  0BF4               	decfsz	((??_LCD_initialize+0)+0),f
  2294  04AC  2CAB               	goto	u1267
  2295  04AD  0BF5               	decfsz	((??_LCD_initialize+0)+0+1),f
  2296  04AE  2CAB               	goto	u1267
  2297  04AF  2CB0               	nop2
  2298                           opt asmopt_on
  2299                           
  2300                           	line	100
  2301                           	
  2302  04B0                     l1441:	
  2303                           ;lcd.c: 100: RB3 = 0;
  2304  04B0  1283               	bcf	status, 5	;RP0=0, select bank0
  2305  04B1  1303               	bcf	status, 6	;RP1=0, select bank0
  2306  04B2  1186               	bcf	(51/8),(51)&7	;volatile
  2307                           	line	101
  2308                           ;lcd.c: 101: _delay((unsigned long)((2)*(20000000/4000.0)));
  2309                           	opt asmopt_off
  2310  04B3  300D               movlw	13
  2311  04B4  00F5               movwf	((??_LCD_initialize+0)+0+1),f
  2312  04B5  30FB               	movlw	251
  2313  04B6  00F4               movwf	((??_LCD_initialize+0)+0),f
  2314  04B7                     u1277:
  2315  04B7  0BF4               	decfsz	((??_LCD_initialize+0)+0),f
  2316  04B8  2CB7               	goto	u1277
  2317  04B9  0BF5               	decfsz	((??_LCD_initialize+0)+0+1),f
  2318  04BA  2CB7               	goto	u1277
  2319  04BB  2CBC               	nop2
  2320                           opt asmopt_on
  2321                           
  2322                           	line	103
  2323                           	
  2324  04BC                     l1443:	
  2325                           ;lcd.c: 103: RB7 = 0;
  2326  04BC  1283               	bcf	status, 5	;RP0=0, select bank0
  2327  04BD  1303               	bcf	status, 6	;RP1=0, select bank0
  2328  04BE  1386               	bcf	(55/8),(55)&7	;volatile
  2329                           	line	104
  2330                           	
  2331  04BF                     l1445:	
  2332                           ;lcd.c: 104: RB6 = 0;
  2333  04BF  1306               	bcf	(54/8),(54)&7	;volatile
  2334                           	line	105
  2335                           	
  2336  04C0                     l1447:	
  2337                           ;lcd.c: 105: RB5 = 1;
  2338  04C0  1686               	bsf	(53/8),(53)&7	;volatile
  2339                           	line	106
  2340                           	
  2341  04C1                     l1449:	
  2342                           ;lcd.c: 106: RB4 = 0;
  2343  04C1  1206               	bcf	(52/8),(52)&7	;volatile
  2344                           	line	107
  2345                           	
  2346  04C2                     l1451:	
  2347                           ;lcd.c: 107: RB3 = 1;
  2348  04C2  1586               	bsf	(51/8),(51)&7	;volatile
  2349                           	line	108
  2350                           ;lcd.c: 108: _delay((unsigned long)((2)*(20000000/4000.0)));
  2351                           	opt asmopt_off
  2352  04C3  300D               movlw	13
  2353  04C4  00F5               movwf	((??_LCD_initialize+0)+0+1),f
  2354  04C5  30FB               	movlw	251
  2355  04C6  00F4               movwf	((??_LCD_initialize+0)+0),f
  2356  04C7                     u1287:
  2357  04C7  0BF4               	decfsz	((??_LCD_initialize+0)+0),f
  2358  04C8  2CC7               	goto	u1287
  2359  04C9  0BF5               	decfsz	((??_LCD_initialize+0)+0+1),f
  2360  04CA  2CC7               	goto	u1287
  2361  04CB  2CCC               	nop2
  2362                           opt asmopt_on
  2363                           
  2364                           	line	109
  2365                           	
  2366  04CC                     l1453:	
  2367                           ;lcd.c: 109: RB3 = 0;
  2368  04CC  1283               	bcf	status, 5	;RP0=0, select bank0
  2369  04CD  1303               	bcf	status, 6	;RP1=0, select bank0
  2370  04CE  1186               	bcf	(51/8),(51)&7	;volatile
  2371                           	line	110
  2372                           ;lcd.c: 110: _delay((unsigned long)((2)*(20000000/4000.0)));
  2373                           	opt asmopt_off
  2374  04CF  300D               movlw	13
  2375  04D0  00F5               movwf	((??_LCD_initialize+0)+0+1),f
  2376  04D1  30FB               	movlw	251
  2377  04D2  00F4               movwf	((??_LCD_initialize+0)+0),f
  2378  04D3                     u1297:
  2379  04D3  0BF4               	decfsz	((??_LCD_initialize+0)+0),f
  2380  04D4  2CD3               	goto	u1297
  2381  04D5  0BF5               	decfsz	((??_LCD_initialize+0)+0+1),f
  2382  04D6  2CD3               	goto	u1297
  2383  04D7  2CD8               	nop2
  2384                           opt asmopt_on
  2385                           
  2386                           	line	113
  2387                           	
  2388  04D8                     l1455:	
  2389                           ;lcd.c: 113: LCD_command (0x28);
  2390  04D8  3028               	movlw	(028h)
  2391  04D9  120A  118A  2239   	fcall	_LCD_command
              120A  118A         
  2392                           	line	114
  2393                           	
  2394  04DE                     l1457:	
  2395                           ;lcd.c: 114: LCD_command (0x0C);
  2396  04DE  300C               	movlw	(0Ch)
  2397  04DF  120A  118A  2239   	fcall	_LCD_command
              120A  118A         
  2398                           	line	115
  2399                           	
  2400  04E4                     l1459:	
  2401                           ;lcd.c: 115: LCD_command (0x01);
  2402  04E4  3001               	movlw	(01h)
  2403  04E5  120A  118A  2239   	fcall	_LCD_command
              120A  118A         
  2404                           	line	116
  2405                           	
  2406  04EA                     l1461:	
  2407                           ;lcd.c: 116: LCD_command (0x06);
  2408  04EA  3006               	movlw	(06h)
  2409  04EB  120A  118A  2239   	fcall	_LCD_command
              120A  118A         
  2410                           	line	117
  2411                           	
  2412  04F0                     l70:	
  2413  04F0  0008               	return
  2414                           	opt stack 0
  2415                           GLOBAL	__end_of_LCD_initialize
  2416  04F1                     	__end_of_LCD_initialize:
  2417                           	signat	_LCD_initialize,88
  2418                           	global	_LCD_command
  2419                           
  2420 ;; *************** function _LCD_command *****************
  2421 ;; Defined at:
  2422 ;;		line 18 in file "lcd.c"
  2423 ;; Parameters:    Size  Location     Type
  2424 ;;  var             1    wreg     unsigned char 
  2425 ;; Auto vars:     Size  Location     Type
  2426 ;;  var             1    3[COMMON] unsigned char 
  2427 ;; Return value:  Size  Location     Type
  2428 ;;		None               void
  2429 ;; Registers used:
  2430 ;;		wreg, status,2, status,0, pclath, cstack
  2431 ;; Tracked objects:
  2432 ;;		On entry : 0/0
  2433 ;;		On exit  : 0/0
  2434 ;;		Unchanged: 0/0
  2435 ;; Data sizes:     COMMON   BANK0   BANK1   BANK3   BANK2
  2436 ;;      Params:         0       0       0       0       0
  2437 ;;      Locals:         1       0       0       0       0
  2438 ;;      Temps:          0       0       0       0       0
  2439 ;;      Totals:         1       0       0       0       0
  2440 ;;Total ram usage:        1 bytes
  2441 ;; Hardware stack levels used:    1
  2442 ;; Hardware stack levels required when called:    1
  2443 ;; This function calls:
  2444 ;;		_LCD_4bitsend
  2445 ;; This function is called by:
  2446 ;;		_LCD_initialize
  2447 ;;		_LCD_goto
  2448 ;;		_LCD_clear
  2449 ;; This function uses a non-reentrant model
  2450 ;;
  2451                           psect	text473,local,class=CODE,delta=2,merge=1
  2452                           global __ptext473
  2453  0239                     __ptext473:
  2454                           psect	text473
  2455                           	file	"lcd.c"
  2456                           	line	18
  2457                           	global	__size_of_LCD_command
  2458  000B                     	__size_of_LCD_command	equ	__end_of_LCD_command-_LCD_command
  2459                           	
  2460  0239                     _LCD_command:	
  2461                           	opt	stack 5
  2462                           ; Regs used in _LCD_command: [wreg+status,2+status,0+pclath+cstack]
  2463                           ;LCD_command@var stored from wreg
  2464  0239  00F3               	movwf	(LCD_command@var)
  2465                           	line	19
  2466                           	
  2467  023A                     l1299:	
  2468                           ;lcd.c: 19: RB2 = 0;
  2469  023A  1283               	bcf	status, 5	;RP0=0, select bank0
  2470  023B  1303               	bcf	status, 6	;RP1=0, select bank0
  2471  023C  1106               	bcf	(50/8),(50)&7	;volatile
  2472                           	line	20
  2473                           	
  2474  023D                     l1301:	
  2475                           ;lcd.c: 20: LCD_4bitsend(var);
  2476  023D  0873               	movf	(LCD_command@var),w
  2477  023E  120A  118A  2592   	fcall	_LCD_4bitsend
              120A  118A         
  2478                           	line	21
  2479                           	
  2480  0243                     l64:	
  2481  0243  0008               	return
  2482                           	opt stack 0
  2483                           GLOBAL	__end_of_LCD_command
  2484  0244                     	__end_of_LCD_command:
  2485                           	signat	_LCD_command,4216
  2486                           	global	_LCD_4bitsend
  2487                           
  2488 ;; *************** function _LCD_4bitsend *****************
  2489 ;; Defined at:
  2490 ;;		line 36 in file "lcd.c"
  2491 ;; Parameters:    Size  Location     Type
  2492 ;;  data            1    wreg     unsigned char 
  2493 ;; Auto vars:     Size  Location     Type
  2494 ;;  data            1    2[COMMON] unsigned char 
  2495 ;; Return value:  Size  Location     Type
  2496 ;;		None               void
  2497 ;; Registers used:
  2498 ;;		wreg, status,2, status,0
  2499 ;; Tracked objects:
  2500 ;;		On entry : 0/0
  2501 ;;		On exit  : 0/0
  2502 ;;		Unchanged: 0/0
  2503 ;; Data sizes:     COMMON   BANK0   BANK1   BANK3   BANK2
  2504 ;;      Params:         0       0       0       0       0
  2505 ;;      Locals:         1       0       0       0       0
  2506 ;;      Temps:          2       0       0       0       0
  2507 ;;      Totals:         3       0       0       0       0
  2508 ;;Total ram usage:        3 bytes
  2509 ;; Hardware stack levels used:    1
  2510 ;; This function calls:
  2511 ;;		Nothing
  2512 ;; This function is called by:
  2513 ;;		_LCD_command
  2514 ;;		_LCD_senddata
  2515 ;; This function uses a non-reentrant model
  2516 ;;
  2517                           psect	text474,local,class=CODE,delta=2,merge=1
  2518                           global __ptext474
  2519  0592                     __ptext474:
  2520                           psect	text474
  2521                           	file	"lcd.c"
  2522                           	line	36
  2523                           	global	__size_of_LCD_4bitsend
  2524  00A4                     	__size_of_LCD_4bitsend	equ	__end_of_LCD_4bitsend-_LCD_4bitsend
  2525                           	
  2526  0592                     _LCD_4bitsend:	
  2527                           	opt	stack 5
  2528                           ; Regs used in _LCD_4bitsend: [wreg+status,2+status,0]
  2529                           ;LCD_4bitsend@data stored from wreg
  2530  0592  00F2               	movwf	(LCD_4bitsend@data)
  2531                           	line	37
  2532                           	
  2533  0593                     l1233:	
  2534                           ;lcd.c: 37: RB7 = 1 & (data >> 7);
  2535  0593  0872               	movf	(LCD_4bitsend@data),w
  2536  0594  00F0               	movwf	(??_LCD_4bitsend+0)+0
  2537  0595  3007               	movlw	07h
  2538  0596                     u755:
  2539  0596  1003               	clrc
  2540  0597  0CF0               	rrf	(??_LCD_4bitsend+0)+0,f
  2541  0598  3EFF               	addlw	-1
  2542  0599  1D03               	skipz
  2543  059A  2D96               	goto	u755
  2544  059B  1870               	btfsc	0+(??_LCD_4bitsend+0)+0,0
  2545  059C  2D9E               	goto	u761
  2546  059D  2DA2               	goto	u760
  2547                           	
  2548  059E                     u761:
  2549  059E  1283               	bcf	status, 5	;RP0=0, select bank0
  2550  059F  1303               	bcf	status, 6	;RP1=0, select bank0
  2551  05A0  1786               	bsf	(55/8),(55)&7	;volatile
  2552  05A1  2DA5               	goto	u774
  2553  05A2                     u760:
  2554  05A2  1283               	bcf	status, 5	;RP0=0, select bank0
  2555  05A3  1303               	bcf	status, 6	;RP1=0, select bank0
  2556  05A4  1386               	bcf	(55/8),(55)&7	;volatile
  2557  05A5                     u774:
  2558                           	line	38
  2559                           ;lcd.c: 38: RB6 = 1 & (data >> 6);
  2560  05A5  0872               	movf	(LCD_4bitsend@data),w
  2561  05A6  00F0               	movwf	(??_LCD_4bitsend+0)+0
  2562  05A7  3006               	movlw	06h
  2563  05A8                     u785:
  2564  05A8  1003               	clrc
  2565  05A9  0CF0               	rrf	(??_LCD_4bitsend+0)+0,f
  2566  05AA  3EFF               	addlw	-1
  2567  05AB  1D03               	skipz
  2568  05AC  2DA8               	goto	u785
  2569  05AD  1870               	btfsc	0+(??_LCD_4bitsend+0)+0,0
  2570  05AE  2DB0               	goto	u791
  2571  05AF  2DB4               	goto	u790
  2572                           	
  2573  05B0                     u791:
  2574  05B0  1283               	bcf	status, 5	;RP0=0, select bank0
  2575  05B1  1303               	bcf	status, 6	;RP1=0, select bank0
  2576  05B2  1706               	bsf	(54/8),(54)&7	;volatile
  2577  05B3  2DB7               	goto	u804
  2578  05B4                     u790:
  2579  05B4  1283               	bcf	status, 5	;RP0=0, select bank0
  2580  05B5  1303               	bcf	status, 6	;RP1=0, select bank0
  2581  05B6  1306               	bcf	(54/8),(54)&7	;volatile
  2582  05B7                     u804:
  2583                           	line	39
  2584                           ;lcd.c: 39: RB5 = 1 & (data >> 5);
  2585  05B7  0872               	movf	(LCD_4bitsend@data),w
  2586  05B8  00F0               	movwf	(??_LCD_4bitsend+0)+0
  2587  05B9  3005               	movlw	05h
  2588  05BA                     u815:
  2589  05BA  1003               	clrc
  2590  05BB  0CF0               	rrf	(??_LCD_4bitsend+0)+0,f
  2591  05BC  3EFF               	addlw	-1
  2592  05BD  1D03               	skipz
  2593  05BE  2DBA               	goto	u815
  2594  05BF  1870               	btfsc	0+(??_LCD_4bitsend+0)+0,0
  2595  05C0  2DC2               	goto	u821
  2596  05C1  2DC6               	goto	u820
  2597                           	
  2598  05C2                     u821:
  2599  05C2  1283               	bcf	status, 5	;RP0=0, select bank0
  2600  05C3  1303               	bcf	status, 6	;RP1=0, select bank0
  2601  05C4  1686               	bsf	(53/8),(53)&7	;volatile
  2602  05C5  2DC9               	goto	u834
  2603  05C6                     u820:
  2604  05C6  1283               	bcf	status, 5	;RP0=0, select bank0
  2605  05C7  1303               	bcf	status, 6	;RP1=0, select bank0
  2606  05C8  1286               	bcf	(53/8),(53)&7	;volatile
  2607  05C9                     u834:
  2608                           	line	40
  2609                           ;lcd.c: 40: RB4 = 1 & (data >> 4);
  2610  05C9  0872               	movf	(LCD_4bitsend@data),w
  2611  05CA  00F0               	movwf	(??_LCD_4bitsend+0)+0
  2612  05CB  3004               	movlw	04h
  2613  05CC                     u845:
  2614  05CC  1003               	clrc
  2615  05CD  0CF0               	rrf	(??_LCD_4bitsend+0)+0,f
  2616  05CE  3EFF               	addlw	-1
  2617  05CF  1D03               	skipz
  2618  05D0  2DCC               	goto	u845
  2619  05D1  1870               	btfsc	0+(??_LCD_4bitsend+0)+0,0
  2620  05D2  2DD4               	goto	u851
  2621  05D3  2DD8               	goto	u850
  2622                           	
  2623  05D4                     u851:
  2624  05D4  1283               	bcf	status, 5	;RP0=0, select bank0
  2625  05D5  1303               	bcf	status, 6	;RP1=0, select bank0
  2626  05D6  1606               	bsf	(52/8),(52)&7	;volatile
  2627  05D7  2DDB               	goto	u864
  2628  05D8                     u850:
  2629  05D8  1283               	bcf	status, 5	;RP0=0, select bank0
  2630  05D9  1303               	bcf	status, 6	;RP1=0, select bank0
  2631  05DA  1206               	bcf	(52/8),(52)&7	;volatile
  2632  05DB                     u864:
  2633                           	line	41
  2634                           	
  2635  05DB                     l1235:	
  2636                           ;lcd.c: 41: RB3 = 1;
  2637  05DB  1586               	bsf	(51/8),(51)&7	;volatile
  2638                           	line	42
  2639                           	
  2640  05DC                     l1237:	
  2641                           ;lcd.c: 42: _delay((unsigned long)((2)*(20000000/4000.0)));
  2642                           	opt asmopt_off
  2643  05DC  300D               movlw	13
  2644  05DD  00F1               movwf	((??_LCD_4bitsend+0)+0+1),f
  2645  05DE  30FB               	movlw	251
  2646  05DF  00F0               movwf	((??_LCD_4bitsend+0)+0),f
  2647  05E0                     u1307:
  2648  05E0  0BF0               	decfsz	((??_LCD_4bitsend+0)+0),f
  2649  05E1  2DE0               	goto	u1307
  2650  05E2  0BF1               	decfsz	((??_LCD_4bitsend+0)+0+1),f
  2651  05E3  2DE0               	goto	u1307
  2652  05E4  2DE5               	nop2
  2653                           opt asmopt_on
  2654                           
  2655                           	line	43
  2656                           	
  2657  05E5                     l1239:	
  2658                           ;lcd.c: 43: RB3 = 0;
  2659  05E5  1283               	bcf	status, 5	;RP0=0, select bank0
  2660  05E6  1303               	bcf	status, 6	;RP1=0, select bank0
  2661  05E7  1186               	bcf	(51/8),(51)&7	;volatile
  2662                           	line	46
  2663                           	
  2664  05E8                     l1241:	
  2665                           ;lcd.c: 46: RB7 = 1 & (data >> 3);
  2666  05E8  0872               	movf	(LCD_4bitsend@data),w
  2667  05E9  00F0               	movwf	(??_LCD_4bitsend+0)+0
  2668  05EA  3003               	movlw	03h
  2669  05EB                     u875:
  2670  05EB  1003               	clrc
  2671  05EC  0CF0               	rrf	(??_LCD_4bitsend+0)+0,f
  2672  05ED  3EFF               	addlw	-1
  2673  05EE  1D03               	skipz
  2674  05EF  2DEB               	goto	u875
  2675  05F0  1870               	btfsc	0+(??_LCD_4bitsend+0)+0,0
  2676  05F1  2DF3               	goto	u881
  2677  05F2  2DF7               	goto	u880
  2678                           	
  2679  05F3                     u881:
  2680  05F3  1283               	bcf	status, 5	;RP0=0, select bank0
  2681  05F4  1303               	bcf	status, 6	;RP1=0, select bank0
  2682  05F5  1786               	bsf	(55/8),(55)&7	;volatile
  2683  05F6  2DFA               	goto	u894
  2684  05F7                     u880:
  2685  05F7  1283               	bcf	status, 5	;RP0=0, select bank0
  2686  05F8  1303               	bcf	status, 6	;RP1=0, select bank0
  2687  05F9  1386               	bcf	(55/8),(55)&7	;volatile
  2688  05FA                     u894:
  2689                           	line	47
  2690                           	
  2691  05FA                     l1243:	
  2692                           ;lcd.c: 47: RB6 = 1 & (data >> 2);
  2693  05FA  0872               	movf	(LCD_4bitsend@data),w
  2694  05FB  00F0               	movwf	(??_LCD_4bitsend+0)+0
  2695  05FC  3002               	movlw	02h
  2696  05FD                     u905:
  2697  05FD  1003               	clrc
  2698  05FE  0CF0               	rrf	(??_LCD_4bitsend+0)+0,f
  2699  05FF  3EFF               	addlw	-1
  2700  0600  1D03               	skipz
  2701  0601  2DFD               	goto	u905
  2702  0602  1870               	btfsc	0+(??_LCD_4bitsend+0)+0,0
  2703  0603  2E05               	goto	u911
  2704  0604  2E09               	goto	u910
  2705                           	
  2706  0605                     u911:
  2707  0605  1283               	bcf	status, 5	;RP0=0, select bank0
  2708  0606  1303               	bcf	status, 6	;RP1=0, select bank0
  2709  0607  1706               	bsf	(54/8),(54)&7	;volatile
  2710  0608  2E0C               	goto	u924
  2711  0609                     u910:
  2712  0609  1283               	bcf	status, 5	;RP0=0, select bank0
  2713  060A  1303               	bcf	status, 6	;RP1=0, select bank0
  2714  060B  1306               	bcf	(54/8),(54)&7	;volatile
  2715  060C                     u924:
  2716                           	line	48
  2717                           	
  2718  060C                     l1245:	
  2719                           ;lcd.c: 48: RB5 = 1 & (data >> 1);
  2720  060C  0872               	movf	(LCD_4bitsend@data),w
  2721  060D  00F0               	movwf	(??_LCD_4bitsend+0)+0
  2722  060E  3001               	movlw	01h
  2723  060F                     u935:
  2724  060F  1003               	clrc
  2725  0610  0CF0               	rrf	(??_LCD_4bitsend+0)+0,f
  2726  0611  3EFF               	addlw	-1
  2727  0612  1D03               	skipz
  2728  0613  2E0F               	goto	u935
  2729  0614  1870               	btfsc	0+(??_LCD_4bitsend+0)+0,0
  2730  0615  2E17               	goto	u941
  2731  0616  2E1B               	goto	u940
  2732                           	
  2733  0617                     u941:
  2734  0617  1283               	bcf	status, 5	;RP0=0, select bank0
  2735  0618  1303               	bcf	status, 6	;RP1=0, select bank0
  2736  0619  1686               	bsf	(53/8),(53)&7	;volatile
  2737  061A  2E1E               	goto	u954
  2738  061B                     u940:
  2739  061B  1283               	bcf	status, 5	;RP0=0, select bank0
  2740  061C  1303               	bcf	status, 6	;RP1=0, select bank0
  2741  061D  1286               	bcf	(53/8),(53)&7	;volatile
  2742  061E                     u954:
  2743                           	line	49
  2744                           	
  2745  061E                     l1247:	
  2746                           ;lcd.c: 49: RB4 = 1 & data;
  2747  061E  1872               	btfsc	(LCD_4bitsend@data),0
  2748  061F  2E21               	goto	u961
  2749  0620  2E25               	goto	u960
  2750                           	
  2751  0621                     u961:
  2752  0621  1283               	bcf	status, 5	;RP0=0, select bank0
  2753  0622  1303               	bcf	status, 6	;RP1=0, select bank0
  2754  0623  1606               	bsf	(52/8),(52)&7	;volatile
  2755  0624  2E28               	goto	u974
  2756  0625                     u960:
  2757  0625  1283               	bcf	status, 5	;RP0=0, select bank0
  2758  0626  1303               	bcf	status, 6	;RP1=0, select bank0
  2759  0627  1206               	bcf	(52/8),(52)&7	;volatile
  2760  0628                     u974:
  2761                           	line	50
  2762                           	
  2763  0628                     l1249:	
  2764                           ;lcd.c: 50: RB3 = 1;
  2765  0628  1586               	bsf	(51/8),(51)&7	;volatile
  2766                           	line	51
  2767                           ;lcd.c: 51: _delay((unsigned long)((2)*(20000000/4000.0)));
  2768                           	opt asmopt_off
  2769  0629  300D               movlw	13
  2770  062A  00F1               movwf	((??_LCD_4bitsend+0)+0+1),f
  2771  062B  30FB               	movlw	251
  2772  062C  00F0               movwf	((??_LCD_4bitsend+0)+0),f
  2773  062D                     u1317:
  2774  062D  0BF0               	decfsz	((??_LCD_4bitsend+0)+0),f
  2775  062E  2E2D               	goto	u1317
  2776  062F  0BF1               	decfsz	((??_LCD_4bitsend+0)+0+1),f
  2777  0630  2E2D               	goto	u1317
  2778  0631  2E32               	nop2
  2779                           opt asmopt_on
  2780                           
  2781                           	line	52
  2782                           	
  2783  0632                     l1251:	
  2784                           ;lcd.c: 52: RB3 = 0;
  2785  0632  1283               	bcf	status, 5	;RP0=0, select bank0
  2786  0633  1303               	bcf	status, 6	;RP1=0, select bank0
  2787  0634  1186               	bcf	(51/8),(51)&7	;volatile
  2788                           	line	54
  2789                           	
  2790  0635                     l67:	
  2791  0635  0008               	return
  2792                           	opt stack 0
  2793                           GLOBAL	__end_of_LCD_4bitsend
  2794  0636                     	__end_of_LCD_4bitsend:
  2795                           	signat	_LCD_4bitsend,4216
  2796                           	global	_ucNrf24l01ReceivePacket
  2797                           
  2798 ;; *************** function _ucNrf24l01ReceivePacket *****************
  2799 ;; Defined at:
  2800 ;;		line 285 in file "nrf24l01.c"
  2801 ;; Parameters:    Size  Location     Type
  2802 ;;  pucBuffer       1    wreg     PTR unsigned char 
  2803 ;;		 -> main@ucData(1), 
  2804 ;;  ucLength        1   11[COMMON] unsigned char 
  2805 ;; Auto vars:     Size  Location     Type
  2806 ;;  pucBuffer       1    0[BANK0 ] PTR unsigned char 
  2807 ;;		 -> main@ucData(1), 
  2808 ;;  ucReturnCode    1    3[BANK0 ] unsigned char 
  2809 ;;  ucStatus        1    2[BANK0 ] unsigned char 
  2810 ;;  ucFifoStatus    1    1[BANK0 ] unsigned char 
  2811 ;; Return value:  Size  Location     Type
  2812 ;;                  1    wreg      unsigned char 
  2813 ;; Registers used:
  2814 ;;		wreg, fsr0l, fsr0h, status,2, status,0, btemp+1, pclath, cstack
  2815 ;; Tracked objects:
  2816 ;;		On entry : 0/0
  2817 ;;		On exit  : 0/0
  2818 ;;		Unchanged: 0/0
  2819 ;; Data sizes:     COMMON   BANK0   BANK1   BANK3   BANK2
  2820 ;;      Params:         1       0       0       0       0
  2821 ;;      Locals:         0       4       0       0       0
  2822 ;;      Temps:          2       0       0       0       0
  2823 ;;      Totals:         3       4       0       0       0
  2824 ;;Total ram usage:        7 bytes
  2825 ;; Hardware stack levels used:    1
  2826 ;; Hardware stack levels required when called:    3
  2827 ;; This function calls:
  2828 ;;		_ucReadNrf24l01FifoStatus
  2829 ;;		_vReadNrf24l01
  2830 ;;		_ucReadNrf24l01Status
  2831 ;;		_vWriteNrf24l01
  2832 ;; This function is called by:
  2833 ;;		_main
  2834 ;; This function uses a non-reentrant model
  2835 ;;
  2836                           psect	text475,local,class=CODE,delta=2,merge=1
  2837                           global __ptext475
  2838  03C4                     __ptext475:
  2839                           psect	text475
  2840                           	file	"nrf24l01.c"
  2841                           	line	285
  2842                           	global	__size_of_ucNrf24l01ReceivePacket
  2843  0048                     	__size_of_ucNrf24l01ReceivePacket	equ	__end_of_ucNrf24l01ReceivePacket-_ucNrf24l01Recei
                                 vePacket
  2844                           	
  2845  03C4                     _ucNrf24l01ReceivePacket:	
  2846                           	opt	stack 4
  2847                           ; Regs used in _ucNrf24l01ReceivePacket: [wreg-fsr0h+status,2+status,0+btemp+1+pclath+cs
                                 tack]
  2848                           ;ucNrf24l01ReceivePacket@pucBuffer stored from wreg
  2849                           	line	293
  2850  03C4  1283               	bcf	status, 5	;RP0=0, select bank0
  2851  03C5  1303               	bcf	status, 6	;RP1=0, select bank0
  2852  03C6  00A0               	movwf	(ucNrf24l01ReceivePacket@pucBuffer)
  2853                           	
  2854  03C7                     l1479:	
  2855                           ;nrf24l01.c: 286: unsigned char ucStatus;
  2856                           ;nrf24l01.c: 287: unsigned char ucFifoStatus;
  2857                           ;nrf24l01.c: 288: unsigned char ucReturnCode;
  2858                           ;nrf24l01.c: 293: ucFifoStatus = ucReadNrf24l01FifoStatus();
  2859  03C7  120A  118A  226F   	fcall	_ucReadNrf24l01FifoStatus
              120A  118A         
  2860  03CC  00FC               	movwf	(??_ucNrf24l01ReceivePacket+0)+0
  2861  03CD  087C               	movf	(??_ucNrf24l01ReceivePacket+0)+0,w
  2862  03CE  1283               	bcf	status, 5	;RP0=0, select bank0
  2863  03CF  1303               	bcf	status, 6	;RP1=0, select bank0
  2864  03D0  00A1               	movwf	(ucNrf24l01ReceivePacket@ucFifoStatus)
  2865                           	line	296
  2866                           	
  2867  03D1                     l1481:	
  2868                           ;nrf24l01.c: 296: if ((ucFifoStatus & 0x01) == 0) {
  2869  03D1  1821               	btfsc	(ucNrf24l01ReceivePacket@ucFifoStatus),(0)&7
  2870  03D2  2BD4               	goto	u1071
  2871  03D3  2BD5               	goto	u1070
  2872  03D4                     u1071:
  2873  03D4  2BEA               	goto	l197
  2874  03D5                     u1070:
  2875                           	line	297
  2876                           	
  2877  03D5                     l1483:	
  2878                           ;nrf24l01.c: 297: vReadNrf24l01(0b01100001, 0, pucBuffer, ucLength);
  2879  03D5  01F3               	clrf	(?_vReadNrf24l01)
  2880  03D6  0820               	movf	(ucNrf24l01ReceivePacket@pucBuffer),w
  2881  03D7  00FC               	movwf	(??_ucNrf24l01ReceivePacket+0)+0
  2882  03D8  087C               	movf	(??_ucNrf24l01ReceivePacket+0)+0,w
  2883  03D9  00F4               	movwf	0+(?_vReadNrf24l01)+01h
  2884  03DA  087B               	movf	(ucNrf24l01ReceivePacket@ucLength),w
  2885  03DB  00FD               	movwf	(??_ucNrf24l01ReceivePacket+1)+0
  2886  03DC  087D               	movf	(??_ucNrf24l01ReceivePacket+1)+0,w
  2887  03DD  00F5               	movwf	0+(?_vReadNrf24l01)+02h
  2888  03DE  3061               	movlw	(061h)
  2889  03DF  120A  118A  2364   	fcall	_vReadNrf24l01
              120A  118A         
  2890                           	line	298
  2891                           	
  2892  03E4                     l1485:	
  2893                           ;nrf24l01.c: 298: ucReturnCode = 1;
  2894  03E4  1283               	bcf	status, 5	;RP0=0, select bank0
  2895  03E5  1303               	bcf	status, 6	;RP1=0, select bank0
  2896  03E6  01A3               	clrf	(ucNrf24l01ReceivePacket@ucReturnCode)
  2897  03E7  1403               	bsf	status,0
  2898  03E8  0DA3               	rlf	(ucNrf24l01ReceivePacket@ucReturnCode),f
  2899                           	line	299
  2900                           ;nrf24l01.c: 299: }
  2901  03E9  2BEC               	goto	l1487
  2902                           	line	300
  2903                           	
  2904  03EA                     l197:	
  2905                           	line	301
  2906                           ;nrf24l01.c: 300: else {
  2907                           ;nrf24l01.c: 301: ucReturnCode = 0;
  2908  03EA  01A3               	clrf	(ucNrf24l01ReceivePacket@ucReturnCode)
  2909  03EB  2BEC               	goto	l1487
  2910                           	line	302
  2911                           	
  2912  03EC                     l198:	
  2913                           	line	305
  2914                           	
  2915  03EC                     l1487:	
  2916                           ;nrf24l01.c: 302: }
  2917                           ;nrf24l01.c: 305: ucStatus = ucReadNrf24l01Status();
  2918  03EC  120A  118A  225D   	fcall	_ucReadNrf24l01Status
              120A  118A         
  2919  03F1  00FC               	movwf	(??_ucNrf24l01ReceivePacket+0)+0
  2920  03F2  087C               	movf	(??_ucNrf24l01ReceivePacket+0)+0,w
  2921  03F3  1283               	bcf	status, 5	;RP0=0, select bank0
  2922  03F4  1303               	bcf	status, 6	;RP1=0, select bank0
  2923  03F5  00A2               	movwf	(ucNrf24l01ReceivePacket@ucStatus)
  2924                           	line	306
  2925                           	
  2926  03F6                     l1489:	
  2927                           ;nrf24l01.c: 306: vWriteNrf24l01(0b00100000, 0x07, &ucStatus, 1);
  2928  03F6  3007               	movlw	(07h)
  2929  03F7  00FC               	movwf	(??_ucNrf24l01ReceivePacket+0)+0
  2930  03F8  087C               	movf	(??_ucNrf24l01ReceivePacket+0)+0,w
  2931  03F9  00F3               	movwf	(?_vWriteNrf24l01)
  2932  03FA  3022               	movlw	(ucNrf24l01ReceivePacket@ucStatus&0ffh)
  2933  03FB  00F4               	movwf	0+(?_vWriteNrf24l01)+01h
  2934  03FC  3000               	movlw	(0x0/2)
  2935  03FD  00F5               	movwf	1+(?_vWriteNrf24l01)+01h
  2936  03FE  01F6               	clrf	0+(?_vWriteNrf24l01)+03h
  2937  03FF  1403               	bsf	status,0
  2938  0400  0DF6               	rlf	0+(?_vWriteNrf24l01)+03h,f
  2939  0401  3020               	movlw	(020h)
  2940  0402  120A  118A  2391   	fcall	_vWriteNrf24l01
              120A  118A         
  2941                           	line	308
  2942                           	
  2943  0407                     l1491:	
  2944                           ;nrf24l01.c: 308: return ucReturnCode;
  2945  0407  1283               	bcf	status, 5	;RP0=0, select bank0
  2946  0408  1303               	bcf	status, 6	;RP1=0, select bank0
  2947  0409  0823               	movf	(ucNrf24l01ReceivePacket@ucReturnCode),w
  2948  040A  2C0B               	goto	l199
  2949                           	
  2950  040B                     l1493:	
  2951                           	line	309
  2952                           	
  2953  040B                     l199:	
  2954  040B  0008               	return
  2955                           	opt stack 0
  2956                           GLOBAL	__end_of_ucNrf24l01ReceivePacket
  2957  040C                     	__end_of_ucNrf24l01ReceivePacket:
  2958                           	signat	_ucNrf24l01ReceivePacket,8313
  2959                           	global	_vNrf24l01EnableTx
  2960                           
  2961 ;; *************** function _vNrf24l01EnableTx *****************
  2962 ;; Defined at:
  2963 ;;		line 166 in file "nrf24l01.c"
  2964 ;; Parameters:    Size  Location     Type
  2965 ;;		None
  2966 ;; Auto vars:     Size  Location     Type
  2967 ;;  ucBuffer        1   10[COMMON] unsigned char 
  2968 ;; Return value:  Size  Location     Type
  2969 ;;		None               void
  2970 ;; Registers used:
  2971 ;;		wreg, fsr0l, fsr0h, status,2, status,0, btemp+1, pclath, cstack
  2972 ;; Tracked objects:
  2973 ;;		On entry : 0/0
  2974 ;;		On exit  : 0/0
  2975 ;;		Unchanged: 0/0
  2976 ;; Data sizes:     COMMON   BANK0   BANK1   BANK3   BANK2
  2977 ;;      Params:         0       0       0       0       0
  2978 ;;      Locals:         1       0       0       0       0
  2979 ;;      Temps:          1       0       0       0       0
  2980 ;;      Totals:         2       0       0       0       0
  2981 ;;Total ram usage:        2 bytes
  2982 ;; Hardware stack levels used:    1
  2983 ;; Hardware stack levels required when called:    2
  2984 ;; This function calls:
  2985 ;;		_vReadNrf24l01
  2986 ;;		_vWriteNrf24l01
  2987 ;; This function is called by:
  2988 ;;		_main
  2989 ;; This function uses a non-reentrant model
  2990 ;;
  2991                           psect	text476,local,class=CODE,delta=2,merge=1
  2992                           global __ptext476
  2993  02F6                     __ptext476:
  2994                           psect	text476
  2995                           	file	"nrf24l01.c"
  2996                           	line	166
  2997                           	global	__size_of_vNrf24l01EnableTx
  2998  0024                     	__size_of_vNrf24l01EnableTx	equ	__end_of_vNrf24l01EnableTx-_vNrf24l01EnableTx
  2999                           	
  3000  02F6                     _vNrf24l01EnableTx:	
  3001                           	opt	stack 5
  3002                           ; Regs used in _vNrf24l01EnableTx: [wreg-fsr0h+status,2+status,0+btemp+1+pclath+cstack]
  3003                           	line	170
  3004                           	
  3005  02F6                     l1307:	
  3006                           ;nrf24l01.c: 167: unsigned char ucBuffer;
  3007                           ;nrf24l01.c: 170: PORTCbits.RC0 = 0;
  3008  02F6  1283               	bcf	status, 5	;RP0=0, select bank0
  3009  02F7  1303               	bcf	status, 6	;RP1=0, select bank0
  3010  02F8  1007               	bcf	(7),0	;volatile
  3011                           	line	173
  3012                           	
  3013  02F9                     l1309:	
  3014                           ;nrf24l01.c: 173: vReadNrf24l01(0b00000000, 0x00, &ucBuffer, 1);
  3015  02F9  01F3               	clrf	(?_vReadNrf24l01)
  3016  02FA  307A               	movlw	(vNrf24l01EnableTx@ucBuffer)&0ffh
  3017  02FB  00F9               	movwf	(??_vNrf24l01EnableTx+0)+0
  3018  02FC  0879               	movf	(??_vNrf24l01EnableTx+0)+0,w
  3019  02FD  00F4               	movwf	0+(?_vReadNrf24l01)+01h
  3020  02FE  01F5               	clrf	0+(?_vReadNrf24l01)+02h
  3021  02FF  1403               	bsf	status,0
  3022  0300  0DF5               	rlf	0+(?_vReadNrf24l01)+02h,f
  3023  0301  3000               	movlw	(0)
  3024  0302  120A  118A  2364   	fcall	_vReadNrf24l01
              120A  118A         
  3025                           	line	176
  3026                           	
  3027  0307                     l1311:	
  3028                           ;nrf24l01.c: 176: ucBuffer &= 0xfe;
  3029  0307  30FE               	movlw	(0FEh)
  3030  0308  00F9               	movwf	(??_vNrf24l01EnableTx+0)+0
  3031  0309  0879               	movf	(??_vNrf24l01EnableTx+0)+0,w
  3032  030A  05FA               	andwf	(vNrf24l01EnableTx@ucBuffer),f
  3033                           	line	179
  3034                           	
  3035  030B                     l1313:	
  3036                           ;nrf24l01.c: 179: vWriteNrf24l01(0b00100000, 0x00, &ucBuffer, 1);
  3037  030B  01F3               	clrf	(?_vWriteNrf24l01)
  3038  030C  307A               	movlw	(vNrf24l01EnableTx@ucBuffer&0ffh)
  3039  030D  00F4               	movwf	0+(?_vWriteNrf24l01)+01h
  3040  030E  3000               	movlw	(0x00/2)
  3041  030F  00F5               	movwf	1+(?_vWriteNrf24l01)+01h
  3042  0310  01F6               	clrf	0+(?_vWriteNrf24l01)+03h
  3043  0311  1403               	bsf	status,0
  3044  0312  0DF6               	rlf	0+(?_vWriteNrf24l01)+03h,f
  3045  0313  3020               	movlw	(020h)
  3046  0314  120A  118A  2391   	fcall	_vWriteNrf24l01
              120A  118A         
  3047                           	line	180
  3048                           	
  3049  0319                     l183:	
  3050  0319  0008               	return
  3051                           	opt stack 0
  3052                           GLOBAL	__end_of_vNrf24l01EnableTx
  3053  031A                     	__end_of_vNrf24l01EnableTx:
  3054                           	signat	_vNrf24l01EnableTx,88
  3055                           	global	_ucNrf24l01TransmitPacket
  3056                           
  3057 ;; *************** function _ucNrf24l01TransmitPacket *****************
  3058 ;; Defined at:
  3059 ;;		line 235 in file "nrf24l01.c"
  3060 ;; Parameters:    Size  Location     Type
  3061 ;;  pucBuffer       1    wreg     PTR const unsigned char 
  3062 ;;		 -> main@key_send(1), 
  3063 ;;  ucLength        1    9[COMMON] unsigned char 
  3064 ;; Auto vars:     Size  Location     Type
  3065 ;;  pucBuffer       1   11[COMMON] PTR const unsigned char 
  3066 ;;		 -> main@key_send(1), 
  3067 ;;  ucStatus        1   12[COMMON] unsigned char 
  3068 ;; Return value:  Size  Location     Type
  3069 ;;                  1    wreg      unsigned char 
  3070 ;; Registers used:
  3071 ;;		wreg, fsr0l, fsr0h, status,2, status,0, btemp+1, pclath, cstack
  3072 ;; Tracked objects:
  3073 ;;		On entry : 0/0
  3074 ;;		On exit  : 0/0
  3075 ;;		Unchanged: 0/0
  3076 ;; Data sizes:     COMMON   BANK0   BANK1   BANK3   BANK2
  3077 ;;      Params:         1       0       0       0       0
  3078 ;;      Locals:         2       0       0       0       0
  3079 ;;      Temps:          1       0       0       0       0
  3080 ;;      Totals:         4       0       0       0       0
  3081 ;;Total ram usage:        4 bytes
  3082 ;; Hardware stack levels used:    1
  3083 ;; Hardware stack levels required when called:    2
  3084 ;; This function calls:
  3085 ;;		_vWriteNrf24l01
  3086 ;;		_ucReadNrf24l01Status
  3087 ;; This function is called by:
  3088 ;;		_main
  3089 ;; This function uses a non-reentrant model
  3090 ;;
  3091                           psect	text477,local,class=CODE,delta=2,merge=1
  3092                           global __ptext477
  3093  040C                     __ptext477:
  3094                           psect	text477
  3095                           	file	"nrf24l01.c"
  3096                           	line	235
  3097                           	global	__size_of_ucNrf24l01TransmitPacket
  3098  0051                     	__size_of_ucNrf24l01TransmitPacket	equ	__end_of_ucNrf24l01TransmitPacket-_ucNrf24l01Tra
                                 nsmitPacket
  3099                           	
  3100  040C                     _ucNrf24l01TransmitPacket:	
  3101                           	opt	stack 5
  3102                           ; Regs used in _ucNrf24l01TransmitPacket: [wreg-fsr0h+status,2+status,0+btemp+1+pclath+c
                                 stack]
  3103                           ;ucNrf24l01TransmitPacket@pucBuffer stored from wreg
  3104                           	line	237
  3105  040C  00FB               	movwf	(ucNrf24l01TransmitPacket@pucBuffer)
  3106                           	
  3107  040D                     l1315:	
  3108                           ;nrf24l01.c: 237: PORTCbits.RC0 = 1;
  3109  040D  1283               	bcf	status, 5	;RP0=0, select bank0
  3110  040E  1303               	bcf	status, 6	;RP1=0, select bank0
  3111  040F  1407               	bsf	(7),0	;volatile
  3112                           	line	240
  3113                           	
  3114  0410                     l1317:	
  3115                           ;nrf24l01.c: 240: vWriteNrf24l01(0b10100000, 0, pucBuffer, ucLength);
  3116  0410  01F3               	clrf	(?_vWriteNrf24l01)
  3117  0411  087B               	movf	(ucNrf24l01TransmitPacket@pucBuffer),w
  3118  0412  00F4               	movwf	0+(?_vWriteNrf24l01)+01h
  3119  0413  3000               	movlw	(0x0/2)
  3120  0414  00F5               	movwf	1+(?_vWriteNrf24l01)+01h
  3121  0415  0879               	movf	(ucNrf24l01TransmitPacket@ucLength),w
  3122  0416  00FA               	movwf	(??_ucNrf24l01TransmitPacket+0)+0
  3123  0417  087A               	movf	(??_ucNrf24l01TransmitPacket+0)+0,w
  3124  0418  00F6               	movwf	0+(?_vWriteNrf24l01)+03h
  3125  0419  30A0               	movlw	(0A0h)
  3126  041A  120A  118A  2391   	fcall	_vWriteNrf24l01
              120A  118A         
  3127                           	line	243
  3128                           	
  3129  041F                     l1319:	
  3130                           ;nrf24l01.c: 243: PORTCbits.RC0 = 0;
  3131  041F  1283               	bcf	status, 5	;RP0=0, select bank0
  3132  0420  1303               	bcf	status, 6	;RP1=0, select bank0
  3133  0421  1007               	bcf	(7),0	;volatile
  3134                           	line	246
  3135                           ;nrf24l01.c: 246: while (PORTCbits.RC2 == 1);
  3136  0422  2C23               	goto	l189
  3137                           	
  3138  0423                     l190:	
  3139                           	
  3140  0423                     l189:	
  3141  0423  1907               	btfsc	(7),2	;volatile
  3142  0424  2C26               	goto	u1021
  3143  0425  2C27               	goto	u1020
  3144  0426                     u1021:
  3145  0426  2C23               	goto	l189
  3146  0427                     u1020:
  3147  0427  2C28               	goto	l1321
  3148                           	
  3149  0428                     l191:	
  3150                           	line	249
  3151                           	
  3152  0428                     l1321:	
  3153                           ;nrf24l01.c: 249: unsigned char ucStatus = ucReadNrf24l01Status();
  3154  0428  120A  118A  225D   	fcall	_ucReadNrf24l01Status
              120A  118A         
  3155  042D  00FA               	movwf	(??_ucNrf24l01TransmitPacket+0)+0
  3156  042E  087A               	movf	(??_ucNrf24l01TransmitPacket+0)+0,w
  3157  042F  00FC               	movwf	(ucNrf24l01TransmitPacket@ucStatus)
  3158                           	line	252
  3159                           	
  3160  0430                     l1323:	
  3161                           ;nrf24l01.c: 252: vWriteNrf24l01(0b00100000, 0x07, &ucStatus, 1);
  3162  0430  3007               	movlw	(07h)
  3163  0431  00FA               	movwf	(??_ucNrf24l01TransmitPacket+0)+0
  3164  0432  087A               	movf	(??_ucNrf24l01TransmitPacket+0)+0,w
  3165  0433  00F3               	movwf	(?_vWriteNrf24l01)
  3166  0434  307C               	movlw	(ucNrf24l01TransmitPacket@ucStatus&0ffh)
  3167  0435  00F4               	movwf	0+(?_vWriteNrf24l01)+01h
  3168  0436  3000               	movlw	(0x00/2)
  3169  0437  00F5               	movwf	1+(?_vWriteNrf24l01)+01h
  3170  0438  01F6               	clrf	0+(?_vWriteNrf24l01)+03h
  3171  0439  1403               	bsf	status,0
  3172  043A  0DF6               	rlf	0+(?_vWriteNrf24l01)+03h,f
  3173  043B  3020               	movlw	(020h)
  3174  043C  120A  118A  2391   	fcall	_vWriteNrf24l01
              120A  118A         
  3175                           	line	255
  3176                           	
  3177  0441                     l1325:	
  3178                           ;nrf24l01.c: 255: vWriteNrf24l01(0b11100001, 0, 0, 0);
  3179  0441  01F3               	clrf	(?_vWriteNrf24l01)
  3180  0442  3000               	movlw	(0)
  3181  0443  00F4               	movwf	0+(?_vWriteNrf24l01)+01h
  3182  0444  3080               	movlw	80h
  3183  0445  00F5               	movwf	1+(?_vWriteNrf24l01)+01h
  3184  0446  01F6               	clrf	0+(?_vWriteNrf24l01)+03h
  3185  0447  30E1               	movlw	(0E1h)
  3186  0448  120A  118A  2391   	fcall	_vWriteNrf24l01
              120A  118A         
  3187                           	line	259
  3188                           	
  3189  044D                     l1327:	
  3190                           ;nrf24l01.c: 259: if (((ucStatus & 0x20) != 0) && ((ucStatus & 0x10) == 0)) {
  3191  044D  1EFC               	btfss	(ucNrf24l01TransmitPacket@ucStatus),(5)&7
  3192  044E  2C50               	goto	u1031
  3193  044F  2C51               	goto	u1030
  3194  0450                     u1031:
  3195  0450  2C59               	goto	l1337
  3196  0451                     u1030:
  3197                           	
  3198  0451                     l1329:	
  3199  0451  1A7C               	btfsc	(ucNrf24l01TransmitPacket@ucStatus),(4)&7
  3200  0452  2C54               	goto	u1041
  3201  0453  2C55               	goto	u1040
  3202  0454                     u1041:
  3203  0454  2C59               	goto	l1337
  3204  0455                     u1040:
  3205                           	line	260
  3206                           	
  3207  0455                     l1331:	
  3208                           ;nrf24l01.c: 260: return 1;
  3209  0455  3001               	movlw	(01h)
  3210  0456  2C5C               	goto	l193
  3211                           	
  3212  0457                     l1333:	
  3213  0457  2C5C               	goto	l193
  3214                           	line	261
  3215                           	
  3216  0458                     l1335:	
  3217                           ;nrf24l01.c: 261: }
  3218  0458  2C5C               	goto	l193
  3219                           	line	262
  3220                           	
  3221  0459                     l192:	
  3222                           	line	263
  3223                           	
  3224  0459                     l1337:	
  3225                           ;nrf24l01.c: 262: else {
  3226                           ;nrf24l01.c: 263: return 0;
  3227  0459  3000               	movlw	(0)
  3228  045A  2C5C               	goto	l193
  3229                           	
  3230  045B                     l1339:	
  3231  045B  2C5C               	goto	l193
  3232                           	line	264
  3233                           	
  3234  045C                     l194:	
  3235                           	line	265
  3236                           	
  3237  045C                     l193:	
  3238  045C  0008               	return
  3239                           	opt stack 0
  3240                           GLOBAL	__end_of_ucNrf24l01TransmitPacket
  3241  045D                     	__end_of_ucNrf24l01TransmitPacket:
  3242                           	signat	_ucNrf24l01TransmitPacket,8313
  3243                           	global	_vNrf24l01EnableRx
  3244                           
  3245 ;; *************** function _vNrf24l01EnableRx *****************
  3246 ;; Defined at:
  3247 ;;		line 198 in file "nrf24l01.c"
  3248 ;; Parameters:    Size  Location     Type
  3249 ;;		None
  3250 ;; Auto vars:     Size  Location     Type
  3251 ;;  ucBuffer        1   10[COMMON] unsigned char 
  3252 ;; Return value:  Size  Location     Type
  3253 ;;		None               void
  3254 ;; Registers used:
  3255 ;;		wreg, fsr0l, fsr0h, status,2, status,0, btemp+1, pclath, cstack
  3256 ;; Tracked objects:
  3257 ;;		On entry : 0/0
  3258 ;;		On exit  : 0/0
  3259 ;;		Unchanged: 0/0
  3260 ;; Data sizes:     COMMON   BANK0   BANK1   BANK3   BANK2
  3261 ;;      Params:         0       0       0       0       0
  3262 ;;      Locals:         1       0       0       0       0
  3263 ;;      Temps:          1       0       0       0       0
  3264 ;;      Totals:         2       0       0       0       0
  3265 ;;Total ram usage:        2 bytes
  3266 ;; Hardware stack levels used:    1
  3267 ;; Hardware stack levels required when called:    2
  3268 ;; This function calls:
  3269 ;;		_vReadNrf24l01
  3270 ;;		_vWriteNrf24l01
  3271 ;; This function is called by:
  3272 ;;		_main
  3273 ;; This function uses a non-reentrant model
  3274 ;;
  3275                           psect	text478,local,class=CODE,delta=2,merge=1
  3276                           global __ptext478
  3277  02D2                     __ptext478:
  3278                           psect	text478
  3279                           	file	"nrf24l01.c"
  3280                           	line	198
  3281                           	global	__size_of_vNrf24l01EnableRx
  3282  0024                     	__size_of_vNrf24l01EnableRx	equ	__end_of_vNrf24l01EnableRx-_vNrf24l01EnableRx
  3283                           	
  3284  02D2                     _vNrf24l01EnableRx:	
  3285                           	opt	stack 5
  3286                           ; Regs used in _vNrf24l01EnableRx: [wreg-fsr0h+status,2+status,0+btemp+1+pclath+cstack]
  3287                           	line	202
  3288                           	
  3289  02D2                     l1341:	
  3290                           ;nrf24l01.c: 199: unsigned char ucBuffer;
  3291                           ;nrf24l01.c: 202: PORTCbits.RC0 = 0;
  3292  02D2  1283               	bcf	status, 5	;RP0=0, select bank0
  3293  02D3  1303               	bcf	status, 6	;RP1=0, select bank0
  3294  02D4  1007               	bcf	(7),0	;volatile
  3295                           	line	205
  3296                           	
  3297  02D5                     l1343:	
  3298                           ;nrf24l01.c: 205: vReadNrf24l01(0b00000000, 0x00, &ucBuffer, 1);
  3299  02D5  01F3               	clrf	(?_vReadNrf24l01)
  3300  02D6  307A               	movlw	(vNrf24l01EnableRx@ucBuffer)&0ffh
  3301  02D7  00F9               	movwf	(??_vNrf24l01EnableRx+0)+0
  3302  02D8  0879               	movf	(??_vNrf24l01EnableRx+0)+0,w
  3303  02D9  00F4               	movwf	0+(?_vReadNrf24l01)+01h
  3304  02DA  01F5               	clrf	0+(?_vReadNrf24l01)+02h
  3305  02DB  1403               	bsf	status,0
  3306  02DC  0DF5               	rlf	0+(?_vReadNrf24l01)+02h,f
  3307  02DD  3000               	movlw	(0)
  3308  02DE  120A  118A  2364   	fcall	_vReadNrf24l01
              120A  118A         
  3309                           	line	208
  3310                           	
  3311  02E3                     l1345:	
  3312                           ;nrf24l01.c: 208: ucBuffer |= 0x01;
  3313  02E3  147A               	bsf	(vNrf24l01EnableRx@ucBuffer)+(0/8),(0)&7
  3314                           	line	211
  3315                           	
  3316  02E4                     l1347:	
  3317                           ;nrf24l01.c: 211: vWriteNrf24l01(0b00100000, 0x00, &ucBuffer, 1);
  3318  02E4  01F3               	clrf	(?_vWriteNrf24l01)
  3319  02E5  307A               	movlw	(vNrf24l01EnableRx@ucBuffer&0ffh)
  3320  02E6  00F4               	movwf	0+(?_vWriteNrf24l01)+01h
  3321  02E7  3000               	movlw	(0x00/2)
  3322  02E8  00F5               	movwf	1+(?_vWriteNrf24l01)+01h
  3323  02E9  01F6               	clrf	0+(?_vWriteNrf24l01)+03h
  3324  02EA  1403               	bsf	status,0
  3325  02EB  0DF6               	rlf	0+(?_vWriteNrf24l01)+03h,f
  3326  02EC  3020               	movlw	(020h)
  3327  02ED  120A  118A  2391   	fcall	_vWriteNrf24l01
              120A  118A         
  3328                           	line	214
  3329                           	
  3330  02F2                     l1349:	
  3331                           ;nrf24l01.c: 214: PORTCbits.RC0 = 1;
  3332  02F2  1283               	bcf	status, 5	;RP0=0, select bank0
  3333  02F3  1303               	bcf	status, 6	;RP1=0, select bank0
  3334  02F4  1407               	bsf	(7),0	;volatile
  3335                           	line	215
  3336                           	
  3337  02F5                     l186:	
  3338  02F5  0008               	return
  3339                           	opt stack 0
  3340                           GLOBAL	__end_of_vNrf24l01EnableRx
  3341  02F6                     	__end_of_vNrf24l01EnableRx:
  3342                           	signat	_vNrf24l01EnableRx,88
  3343                           	global	_vInitSpi
  3344                           
  3345 ;; *************** function _vInitSpi *****************
  3346 ;; Defined at:
  3347 ;;		line 27 in file "spi.c"
  3348 ;; Parameters:    Size  Location     Type
  3349 ;;		None
  3350 ;; Auto vars:     Size  Location     Type
  3351 ;;		None
  3352 ;; Return value:  Size  Location     Type
  3353 ;;		None               void
  3354 ;; Registers used:
  3355 ;;		None
  3356 ;; Tracked objects:
  3357 ;;		On entry : 0/0
  3358 ;;		On exit  : 0/0
  3359 ;;		Unchanged: 0/0
  3360 ;; Data sizes:     COMMON   BANK0   BANK1   BANK3   BANK2
  3361 ;;      Params:         0       0       0       0       0
  3362 ;;      Locals:         0       0       0       0       0
  3363 ;;      Temps:          0       0       0       0       0
  3364 ;;      Totals:         0       0       0       0       0
  3365 ;;Total ram usage:        0 bytes
  3366 ;; Hardware stack levels used:    1
  3367 ;; This function calls:
  3368 ;;		Nothing
  3369 ;; This function is called by:
  3370 ;;		_initialzie
  3371 ;; This function uses a non-reentrant model
  3372 ;;
  3373                           psect	text479,local,class=CODE,delta=2,merge=1
  3374                           global __ptext479
  3375  024F                     __ptext479:
  3376                           psect	text479
  3377                           	file	"spi.c"
  3378                           	line	27
  3379                           	global	__size_of_vInitSpi
  3380  000E                     	__size_of_vInitSpi	equ	__end_of_vInitSpi-_vInitSpi
  3381                           	
  3382  024F                     _vInitSpi:	
  3383                           	opt	stack 6
  3384                           ; Regs used in _vInitSpi: []
  3385                           	line	29
  3386                           	
  3387  024F                     l1137:	
  3388                           ;spi.c: 29: SSPSTATbits.SMP = 0;
  3389  024F  1683               	bsf	status, 5	;RP0=1, select bank1
  3390  0250  1303               	bcf	status, 6	;RP1=0, select bank1
  3391  0251  1394               	bcf	(148)^080h,7	;volatile
  3392                           	line	32
  3393                           ;spi.c: 32: SSPSTATbits.CKE = 1;
  3394  0252  1714               	bsf	(148)^080h,6	;volatile
  3395                           	line	33
  3396                           ;spi.c: 33: SSPCONbits.CKP = 0;
  3397  0253  1283               	bcf	status, 5	;RP0=0, select bank0
  3398  0254  1303               	bcf	status, 6	;RP1=0, select bank0
  3399  0255  1214               	bcf	(20),4	;volatile
  3400                           	line	36
  3401                           ;spi.c: 36: SSPCONbits.SSPM3 = 0;
  3402  0256  1194               	bcf	(20),3	;volatile
  3403                           	line	37
  3404                           ;spi.c: 37: SSPCONbits.SSPM2 = 0;
  3405  0257  1114               	bcf	(20),2	;volatile
  3406                           	line	38
  3407                           ;spi.c: 38: SSPCONbits.SSPM1 = 1;
  3408  0258  1494               	bsf	(20),1	;volatile
  3409                           	line	39
  3410                           ;spi.c: 39: SSPCONbits.SSPM0 = 0;
  3411  0259  1014               	bcf	(20),0	;volatile
  3412                           	line	42
  3413                           ;spi.c: 42: SSPCONbits.WCOL = 0;
  3414  025A  1394               	bcf	(20),7	;volatile
  3415                           	line	45
  3416                           ;spi.c: 45: SSPCONbits.SSPEN = 1;
  3417  025B  1694               	bsf	(20),5	;volatile
  3418                           	line	46
  3419                           	
  3420  025C                     l228:	
  3421  025C  0008               	return
  3422                           	opt stack 0
  3423                           GLOBAL	__end_of_vInitSpi
  3424  025D                     	__end_of_vInitSpi:
  3425                           	signat	_vInitSpi,88
  3426                           	global	_vInitNrf24l01
  3427                           
  3428 ;; *************** function _vInitNrf24l01 *****************
  3429 ;; Defined at:
  3430 ;;		line 86 in file "nrf24l01.c"
  3431 ;; Parameters:    Size  Location     Type
  3432 ;;		None
  3433 ;; Auto vars:     Size  Location     Type
  3434 ;;  aucBuffer       5    0[BANK0 ] unsigned char [5]
  3435 ;; Return value:  Size  Location     Type
  3436 ;;		None               void
  3437 ;; Registers used:
  3438 ;;		wreg, fsr0l, fsr0h, status,2, status,0, btemp+1, pclath, cstack
  3439 ;; Tracked objects:
  3440 ;;		On entry : 0/0
  3441 ;;		On exit  : 0/0
  3442 ;;		Unchanged: 0/0
  3443 ;; Data sizes:     COMMON   BANK0   BANK1   BANK3   BANK2
  3444 ;;      Params:         0       0       0       0       0
  3445 ;;      Locals:         0       5       0       0       0
  3446 ;;      Temps:          3       0       0       0       0
  3447 ;;      Totals:         3       5       0       0       0
  3448 ;;Total ram usage:        8 bytes
  3449 ;; Hardware stack levels used:    1
  3450 ;; Hardware stack levels required when called:    2
  3451 ;; This function calls:
  3452 ;;		_vWriteNrf24l01
  3453 ;; This function is called by:
  3454 ;;		_initialzie
  3455 ;; This function uses a non-reentrant model
  3456 ;;
  3457                           psect	text480,local,class=CODE,delta=2,merge=1
  3458                           global __ptext480
  3459  06FA                     __ptext480:
  3460                           psect	text480
  3461                           	file	"nrf24l01.c"
  3462                           	line	86
  3463                           	global	__size_of_vInitNrf24l01
  3464  0106                     	__size_of_vInitNrf24l01	equ	__end_of_vInitNrf24l01-_vInitNrf24l01
  3465                           	
  3466  06FA                     _vInitNrf24l01:	
  3467                           	opt	stack 4
  3468                           ; Regs used in _vInitNrf24l01: [wreg-fsr0h+status,2+status,0+btemp+1+pclath+cstack]
  3469                           	line	89
  3470                           	
  3471  06FA                     l1351:	
  3472                           ;nrf24l01.c: 87: unsigned char aucBuffer[5];
  3473                           ;nrf24l01.c: 89: _delay((unsigned long)((100)*(20000000/4000.0)));
  3474                           	opt asmopt_off
  3475  06FA  3003               movlw  3
  3476  06FB  00FB               movwf	((??_vInitNrf24l01+0)+0+2),f
  3477  06FC  308A               movlw	138
  3478  06FD  00FA               movwf	((??_vInitNrf24l01+0)+0+1),f
  3479  06FE  3056               	movlw	86
  3480  06FF  00F9               movwf	((??_vInitNrf24l01+0)+0),f
  3481  0700                     u1327:
  3482  0700  0BF9               	decfsz	((??_vInitNrf24l01+0)+0),f
  3483  0701  2F00               	goto	u1327
  3484  0702  0BFA               	decfsz	((??_vInitNrf24l01+0)+0+1),f
  3485  0703  2F00               	goto	u1327
  3486  0704  0BFB               	decfsz	((??_vInitNrf24l01+0)+0+2),f
  3487  0705  2F00               	goto	u1327
  3488  0706  2F07               	nop2
  3489                           opt asmopt_on
  3490                           
  3491                           	line	92
  3492                           	
  3493  0707                     l1353:	
  3494                           ;nrf24l01.c: 92: vWriteNrf24l01(0b11100001, 0, 0, 0);
  3495  0707  01F3               	clrf	(?_vWriteNrf24l01)
  3496  0708  3000               	movlw	(0)
  3497  0709  00F4               	movwf	0+(?_vWriteNrf24l01)+01h
  3498  070A  3080               	movlw	80h
  3499  070B  00F5               	movwf	1+(?_vWriteNrf24l01)+01h
  3500  070C  01F6               	clrf	0+(?_vWriteNrf24l01)+03h
  3501  070D  30E1               	movlw	(0E1h)
  3502  070E  120A  118A  2391   	fcall	_vWriteNrf24l01
              120A  118A         
  3503                           	line	93
  3504                           	
  3505  0713                     l1355:	
  3506                           ;nrf24l01.c: 93: vWriteNrf24l01(0b11100010, 0, 0, 0);
  3507  0713  01F3               	clrf	(?_vWriteNrf24l01)
  3508  0714  3000               	movlw	(0)
  3509  0715  00F4               	movwf	0+(?_vWriteNrf24l01)+01h
  3510  0716  3080               	movlw	80h
  3511  0717  00F5               	movwf	1+(?_vWriteNrf24l01)+01h
  3512  0718  01F6               	clrf	0+(?_vWriteNrf24l01)+03h
  3513  0719  30E2               	movlw	(0E2h)
  3514  071A  120A  118A  2391   	fcall	_vWriteNrf24l01
              120A  118A         
  3515                           	line	98
  3516                           ;nrf24l01.c: 98: aucBuffer[0] = 0xaa;
  3517  071F  30AA               	movlw	(0AAh)
  3518  0720  00F9               	movwf	(??_vInitNrf24l01+0)+0
  3519  0721  0879               	movf	(??_vInitNrf24l01+0)+0,w
  3520  0722  1283               	bcf	status, 5	;RP0=0, select bank0
  3521  0723  1303               	bcf	status, 6	;RP1=0, select bank0
  3522  0724  00A0               	movwf	(vInitNrf24l01@aucBuffer)
  3523                           	line	99
  3524                           ;nrf24l01.c: 99: aucBuffer[1] = 0xbb;
  3525  0725  30BB               	movlw	(0BBh)
  3526  0726  00F9               	movwf	(??_vInitNrf24l01+0)+0
  3527  0727  0879               	movf	(??_vInitNrf24l01+0)+0,w
  3528  0728  00A1               	movwf	0+(vInitNrf24l01@aucBuffer)+01h
  3529                           	line	100
  3530                           ;nrf24l01.c: 100: aucBuffer[2] = 0xcc;
  3531  0729  30CC               	movlw	(0CCh)
  3532  072A  00F9               	movwf	(??_vInitNrf24l01+0)+0
  3533  072B  0879               	movf	(??_vInitNrf24l01+0)+0,w
  3534  072C  00A2               	movwf	0+(vInitNrf24l01@aucBuffer)+02h
  3535                           	line	101
  3536                           ;nrf24l01.c: 101: aucBuffer[3] = 0xdd;
  3537  072D  30DD               	movlw	(0DDh)
  3538  072E  00F9               	movwf	(??_vInitNrf24l01+0)+0
  3539  072F  0879               	movf	(??_vInitNrf24l01+0)+0,w
  3540  0730  00A3               	movwf	0+(vInitNrf24l01@aucBuffer)+03h
  3541                           	line	102
  3542                           ;nrf24l01.c: 102: aucBuffer[4] = 0xee;
  3543  0731  30EE               	movlw	(0EEh)
  3544  0732  00F9               	movwf	(??_vInitNrf24l01+0)+0
  3545  0733  0879               	movf	(??_vInitNrf24l01+0)+0,w
  3546  0734  00A4               	movwf	0+(vInitNrf24l01@aucBuffer)+04h
  3547                           	line	103
  3548                           	
  3549  0735                     l1357:	
  3550                           ;nrf24l01.c: 103: vWriteNrf24l01(0b00100000, 0x10, &aucBuffer, 5);
  3551  0735  3010               	movlw	(010h)
  3552  0736  00F9               	movwf	(??_vInitNrf24l01+0)+0
  3553  0737  0879               	movf	(??_vInitNrf24l01+0)+0,w
  3554  0738  00F3               	movwf	(?_vWriteNrf24l01)
  3555  0739  3020               	movlw	(vInitNrf24l01@aucBuffer&0ffh)
  3556  073A  00F4               	movwf	0+(?_vWriteNrf24l01)+01h
  3557  073B  3000               	movlw	(0x0/2)
  3558  073C  00F5               	movwf	1+(?_vWriteNrf24l01)+01h
  3559  073D  3005               	movlw	(05h)
  3560  073E  00FA               	movwf	(??_vInitNrf24l01+1)+0
  3561  073F  087A               	movf	(??_vInitNrf24l01+1)+0,w
  3562  0740  00F6               	movwf	0+(?_vWriteNrf24l01)+03h
  3563  0741  3020               	movlw	(020h)
  3564  0742  120A  118A  2391   	fcall	_vWriteNrf24l01
              120A  118A         
  3565                           	line	106
  3566                           	
  3567  0747                     l1359:	
  3568                           ;nrf24l01.c: 106: vWriteNrf24l01(0b00100000, 0x0a, &aucBuffer, 5);
  3569  0747  300A               	movlw	(0Ah)
  3570  0748  00F9               	movwf	(??_vInitNrf24l01+0)+0
  3571  0749  0879               	movf	(??_vInitNrf24l01+0)+0,w
  3572  074A  00F3               	movwf	(?_vWriteNrf24l01)
  3573  074B  3020               	movlw	(vInitNrf24l01@aucBuffer&0ffh)
  3574  074C  00F4               	movwf	0+(?_vWriteNrf24l01)+01h
  3575  074D  3000               	movlw	(0x0/2)
  3576  074E  00F5               	movwf	1+(?_vWriteNrf24l01)+01h
  3577  074F  3005               	movlw	(05h)
  3578  0750  00FA               	movwf	(??_vInitNrf24l01+1)+0
  3579  0751  087A               	movf	(??_vInitNrf24l01+1)+0,w
  3580  0752  00F6               	movwf	0+(?_vWriteNrf24l01)+03h
  3581  0753  3020               	movlw	(020h)
  3582  0754  120A  118A  2391   	fcall	_vWriteNrf24l01
              120A  118A         
  3583                           	line	109
  3584                           	
  3585  0759                     l1361:	
  3586                           ;nrf24l01.c: 109: aucBuffer[0] = 0x01;
  3587  0759  1283               	bcf	status, 5	;RP0=0, select bank0
  3588  075A  1303               	bcf	status, 6	;RP1=0, select bank0
  3589  075B  01A0               	clrf	(vInitNrf24l01@aucBuffer)
  3590  075C  1403               	bsf	status,0
  3591  075D  0DA0               	rlf	(vInitNrf24l01@aucBuffer),f
  3592                           	line	110
  3593                           	
  3594  075E                     l1363:	
  3595                           ;nrf24l01.c: 110: vWriteNrf24l01(0b00100000, 0x01, &aucBuffer, 1);
  3596  075E  01F3               	clrf	(?_vWriteNrf24l01)
  3597  075F  1403               	bsf	status,0
  3598  0760  0DF3               	rlf	(?_vWriteNrf24l01),f
  3599  0761  3020               	movlw	(vInitNrf24l01@aucBuffer&0ffh)
  3600  0762  00F4               	movwf	0+(?_vWriteNrf24l01)+01h
  3601  0763  3000               	movlw	(0x0/2)
  3602  0764  00F5               	movwf	1+(?_vWriteNrf24l01)+01h
  3603  0765  01F6               	clrf	0+(?_vWriteNrf24l01)+03h
  3604  0766  1403               	bsf	status,0
  3605  0767  0DF6               	rlf	0+(?_vWriteNrf24l01)+03h,f
  3606  0768  3020               	movlw	(020h)
  3607  0769  120A  118A  2391   	fcall	_vWriteNrf24l01
              120A  118A         
  3608                           	line	113
  3609                           	
  3610  076E                     l1365:	
  3611                           ;nrf24l01.c: 113: aucBuffer[0] = 0x01;
  3612  076E  1283               	bcf	status, 5	;RP0=0, select bank0
  3613  076F  1303               	bcf	status, 6	;RP1=0, select bank0
  3614  0770  01A0               	clrf	(vInitNrf24l01@aucBuffer)
  3615  0771  1403               	bsf	status,0
  3616  0772  0DA0               	rlf	(vInitNrf24l01@aucBuffer),f
  3617                           	line	114
  3618                           	
  3619  0773                     l1367:	
  3620                           ;nrf24l01.c: 114: vWriteNrf24l01(0b00100000, 0x02, &aucBuffer, 1);
  3621  0773  3002               	movlw	(02h)
  3622  0774  00F9               	movwf	(??_vInitNrf24l01+0)+0
  3623  0775  0879               	movf	(??_vInitNrf24l01+0)+0,w
  3624  0776  00F3               	movwf	(?_vWriteNrf24l01)
  3625  0777  3020               	movlw	(vInitNrf24l01@aucBuffer&0ffh)
  3626  0778  00F4               	movwf	0+(?_vWriteNrf24l01)+01h
  3627  0779  3000               	movlw	(0x0/2)
  3628  077A  00F5               	movwf	1+(?_vWriteNrf24l01)+01h
  3629  077B  01F6               	clrf	0+(?_vWriteNrf24l01)+03h
  3630  077C  1403               	bsf	status,0
  3631  077D  0DF6               	rlf	0+(?_vWriteNrf24l01)+03h,f
  3632  077E  3020               	movlw	(020h)
  3633  077F  120A  118A  2391   	fcall	_vWriteNrf24l01
              120A  118A         
  3634                           	line	117
  3635                           	
  3636  0784                     l1369:	
  3637                           ;nrf24l01.c: 117: aucBuffer[0] = 1;
  3638  0784  1283               	bcf	status, 5	;RP0=0, select bank0
  3639  0785  1303               	bcf	status, 6	;RP1=0, select bank0
  3640  0786  01A0               	clrf	(vInitNrf24l01@aucBuffer)
  3641  0787  1403               	bsf	status,0
  3642  0788  0DA0               	rlf	(vInitNrf24l01@aucBuffer),f
  3643                           	line	118
  3644                           	
  3645  0789                     l1371:	
  3646                           ;nrf24l01.c: 118: vWriteNrf24l01(0b00100000, 0x11, &aucBuffer, 1);
  3647  0789  3011               	movlw	(011h)
  3648  078A  00F9               	movwf	(??_vInitNrf24l01+0)+0
  3649  078B  0879               	movf	(??_vInitNrf24l01+0)+0,w
  3650  078C  00F3               	movwf	(?_vWriteNrf24l01)
  3651  078D  3020               	movlw	(vInitNrf24l01@aucBuffer&0ffh)
  3652  078E  00F4               	movwf	0+(?_vWriteNrf24l01)+01h
  3653  078F  3000               	movlw	(0x0/2)
  3654  0790  00F5               	movwf	1+(?_vWriteNrf24l01)+01h
  3655  0791  01F6               	clrf	0+(?_vWriteNrf24l01)+03h
  3656  0792  1403               	bsf	status,0
  3657  0793  0DF6               	rlf	0+(?_vWriteNrf24l01)+03h,f
  3658  0794  3020               	movlw	(020h)
  3659  0795  120A  118A  2391   	fcall	_vWriteNrf24l01
              120A  118A         
  3660                           	line	122
  3661                           	
  3662  079A                     l1373:	
  3663                           ;nrf24l01.c: 122: aucBuffer[0] = 0b00011111;
  3664  079A  301F               	movlw	(01Fh)
  3665  079B  00F9               	movwf	(??_vInitNrf24l01+0)+0
  3666  079C  0879               	movf	(??_vInitNrf24l01+0)+0,w
  3667  079D  1283               	bcf	status, 5	;RP0=0, select bank0
  3668  079E  1303               	bcf	status, 6	;RP1=0, select bank0
  3669  079F  00A0               	movwf	(vInitNrf24l01@aucBuffer)
  3670                           	line	123
  3671                           	
  3672  07A0                     l1375:	
  3673                           ;nrf24l01.c: 123: vWriteNrf24l01(0b00100000, 0x04, &aucBuffer, 1);
  3674  07A0  3004               	movlw	(04h)
  3675  07A1  00F9               	movwf	(??_vInitNrf24l01+0)+0
  3676  07A2  0879               	movf	(??_vInitNrf24l01+0)+0,w
  3677  07A3  00F3               	movwf	(?_vWriteNrf24l01)
  3678  07A4  3020               	movlw	(vInitNrf24l01@aucBuffer&0ffh)
  3679  07A5  00F4               	movwf	0+(?_vWriteNrf24l01)+01h
  3680  07A6  3000               	movlw	(0x0/2)
  3681  07A7  00F5               	movwf	1+(?_vWriteNrf24l01)+01h
  3682  07A8  01F6               	clrf	0+(?_vWriteNrf24l01)+03h
  3683  07A9  1403               	bsf	status,0
  3684  07AA  0DF6               	rlf	0+(?_vWriteNrf24l01)+03h,f
  3685  07AB  3020               	movlw	(020h)
  3686  07AC  120A  118A  2391   	fcall	_vWriteNrf24l01
              120A  118A         
  3687                           	line	126
  3688                           	
  3689  07B1                     l1377:	
  3690                           ;nrf24l01.c: 126: aucBuffer[0] = 50;
  3691  07B1  3032               	movlw	(032h)
  3692  07B2  00F9               	movwf	(??_vInitNrf24l01+0)+0
  3693  07B3  0879               	movf	(??_vInitNrf24l01+0)+0,w
  3694  07B4  1283               	bcf	status, 5	;RP0=0, select bank0
  3695  07B5  1303               	bcf	status, 6	;RP1=0, select bank0
  3696  07B6  00A0               	movwf	(vInitNrf24l01@aucBuffer)
  3697                           	line	127
  3698                           	
  3699  07B7                     l1379:	
  3700                           ;nrf24l01.c: 127: vWriteNrf24l01(0b00100000, 0x05, &aucBuffer, 1);
  3701  07B7  3005               	movlw	(05h)
  3702  07B8  00F9               	movwf	(??_vInitNrf24l01+0)+0
  3703  07B9  0879               	movf	(??_vInitNrf24l01+0)+0,w
  3704  07BA  00F3               	movwf	(?_vWriteNrf24l01)
  3705  07BB  3020               	movlw	(vInitNrf24l01@aucBuffer&0ffh)
  3706  07BC  00F4               	movwf	0+(?_vWriteNrf24l01)+01h
  3707  07BD  3000               	movlw	(0x0/2)
  3708  07BE  00F5               	movwf	1+(?_vWriteNrf24l01)+01h
  3709  07BF  01F6               	clrf	0+(?_vWriteNrf24l01)+03h
  3710  07C0  1403               	bsf	status,0
  3711  07C1  0DF6               	rlf	0+(?_vWriteNrf24l01)+03h,f
  3712  07C2  3020               	movlw	(020h)
  3713  07C3  120A  118A  2391   	fcall	_vWriteNrf24l01
              120A  118A         
  3714                           	line	132
  3715                           	
  3716  07C8                     l1381:	
  3717                           ;nrf24l01.c: 132: aucBuffer[0] = 0b00000110;
  3718  07C8  3006               	movlw	(06h)
  3719  07C9  00F9               	movwf	(??_vInitNrf24l01+0)+0
  3720  07CA  0879               	movf	(??_vInitNrf24l01+0)+0,w
  3721  07CB  1283               	bcf	status, 5	;RP0=0, select bank0
  3722  07CC  1303               	bcf	status, 6	;RP1=0, select bank0
  3723  07CD  00A0               	movwf	(vInitNrf24l01@aucBuffer)
  3724                           	line	133
  3725                           	
  3726  07CE                     l1383:	
  3727                           ;nrf24l01.c: 133: vWriteNrf24l01(0b00100000, 0x06, &aucBuffer, 1);
  3728  07CE  3006               	movlw	(06h)
  3729  07CF  00F9               	movwf	(??_vInitNrf24l01+0)+0
  3730  07D0  0879               	movf	(??_vInitNrf24l01+0)+0,w
  3731  07D1  00F3               	movwf	(?_vWriteNrf24l01)
  3732  07D2  3020               	movlw	(vInitNrf24l01@aucBuffer&0ffh)
  3733  07D3  00F4               	movwf	0+(?_vWriteNrf24l01)+01h
  3734  07D4  3000               	movlw	(0x0/2)
  3735  07D5  00F5               	movwf	1+(?_vWriteNrf24l01)+01h
  3736  07D6  01F6               	clrf	0+(?_vWriteNrf24l01)+03h
  3737  07D7  1403               	bsf	status,0
  3738  07D8  0DF6               	rlf	0+(?_vWriteNrf24l01)+03h,f
  3739  07D9  3020               	movlw	(020h)
  3740  07DA  120A  118A  2391   	fcall	_vWriteNrf24l01
              120A  118A         
  3741                           	line	140
  3742                           	
  3743  07DF                     l1385:	
  3744                           ;nrf24l01.c: 140: aucBuffer[0] = 0b00001111;
  3745  07DF  300F               	movlw	(0Fh)
  3746  07E0  00F9               	movwf	(??_vInitNrf24l01+0)+0
  3747  07E1  0879               	movf	(??_vInitNrf24l01+0)+0,w
  3748  07E2  1283               	bcf	status, 5	;RP0=0, select bank0
  3749  07E3  1303               	bcf	status, 6	;RP1=0, select bank0
  3750  07E4  00A0               	movwf	(vInitNrf24l01@aucBuffer)
  3751                           	line	141
  3752                           	
  3753  07E5                     l1387:	
  3754                           ;nrf24l01.c: 141: vWriteNrf24l01(0b00100000, 0x00, &aucBuffer, 1);
  3755  07E5  01F3               	clrf	(?_vWriteNrf24l01)
  3756  07E6  3020               	movlw	(vInitNrf24l01@aucBuffer&0ffh)
  3757  07E7  00F4               	movwf	0+(?_vWriteNrf24l01)+01h
  3758  07E8  3000               	movlw	(0x0/2)
  3759  07E9  00F5               	movwf	1+(?_vWriteNrf24l01)+01h
  3760  07EA  01F6               	clrf	0+(?_vWriteNrf24l01)+03h
  3761  07EB  1403               	bsf	status,0
  3762  07EC  0DF6               	rlf	0+(?_vWriteNrf24l01)+03h,f
  3763  07ED  3020               	movlw	(020h)
  3764  07EE  120A  118A  2391   	fcall	_vWriteNrf24l01
              120A  118A         
  3765                           	line	144
  3766                           	
  3767  07F3                     l1389:	
  3768                           ;nrf24l01.c: 144: PORTCbits.RC0 = 1;
  3769  07F3  1283               	bcf	status, 5	;RP0=0, select bank0
  3770  07F4  1303               	bcf	status, 6	;RP1=0, select bank0
  3771  07F5  1407               	bsf	(7),0	;volatile
  3772                           	line	147
  3773                           	
  3774  07F6                     l1391:	
  3775                           ;nrf24l01.c: 147: _delay((unsigned long)((2)*(20000000/4000.0)));
  3776                           	opt asmopt_off
  3777  07F6  300D               movlw	13
  3778  07F7  00FA               movwf	((??_vInitNrf24l01+0)+0+1),f
  3779  07F8  30FB               	movlw	251
  3780  07F9  00F9               movwf	((??_vInitNrf24l01+0)+0),f
  3781  07FA                     u1337:
  3782  07FA  0BF9               	decfsz	((??_vInitNrf24l01+0)+0),f
  3783  07FB  2FFA               	goto	u1337
  3784  07FC  0BFA               	decfsz	((??_vInitNrf24l01+0)+0+1),f
  3785  07FD  2FFA               	goto	u1337
  3786  07FE  2FFF               	nop2
  3787                           opt asmopt_on
  3788                           
  3789                           	line	148
  3790                           	
  3791  07FF                     l180:	
  3792  07FF  0008               	return
  3793                           	opt stack 0
  3794                           GLOBAL	__end_of_vInitNrf24l01
  3795  0800                     	__end_of_vInitNrf24l01:
  3796                           	signat	_vInitNrf24l01,88
  3797                           	global	_vWriteNrf24l01
  3798                           
  3799 ;; *************** function _vWriteNrf24l01 *****************
  3800 ;; Defined at:
  3801 ;;		line 364 in file "nrf24l01.c"
  3802 ;; Parameters:    Size  Location     Type
  3803 ;;  ucCommand       1    wreg     unsigned char 
  3804 ;;  ucAddress       1    3[COMMON] unsigned char 
  3805 ;;  pucBuffer       2    4[COMMON] PTR const unsigned char 
  3806 ;;		 -> ucNrf24l01ReceivePacket@ucStatus(1), ucNrf24l01TransmitPacket@ucStatus(1), vNrf24l01EnableRx@ucBuffer(1), vNrf24
       l01EnableTx@ucBuffer(1), 
  3807 ;;		 -> vInitNrf24l01@aucBuffer(5), ROM(8192), main@key_send(1), 
  3808 ;;  ucLength        1    6[COMMON] unsigned char 
  3809 ;; Auto vars:     Size  Location     Type
  3810 ;;  ucCommand       1    8[COMMON] unsigned char 
  3811 ;; Return value:  Size  Location     Type
  3812 ;;		None               void
  3813 ;; Registers used:
  3814 ;;		wreg, fsr0l, fsr0h, status,2, status,0, btemp+1, pclath, cstack
  3815 ;; Tracked objects:
  3816 ;;		On entry : 0/0
  3817 ;;		On exit  : 0/0
  3818 ;;		Unchanged: 0/0
  3819 ;; Data sizes:     COMMON   BANK0   BANK1   BANK3   BANK2
  3820 ;;      Params:         4       0       0       0       0
  3821 ;;      Locals:         1       0       0       0       0
  3822 ;;      Temps:          1       0       0       0       0
  3823 ;;      Totals:         6       0       0       0       0
  3824 ;;Total ram usage:        6 bytes
  3825 ;; Hardware stack levels used:    1
  3826 ;; Hardware stack levels required when called:    1
  3827 ;; This function calls:
  3828 ;;		_ucTransferSpi
  3829 ;; This function is called by:
  3830 ;;		_vInitNrf24l01
  3831 ;;		_vNrf24l01EnableTx
  3832 ;;		_vNrf24l01EnableRx
  3833 ;;		_ucNrf24l01TransmitPacket
  3834 ;;		_ucNrf24l01ReceivePacket
  3835 ;; This function uses a non-reentrant model
  3836 ;;
  3837                           psect	text481,local,class=CODE,delta=2,merge=1
  3838                           global __ptext481
  3839  0391                     __ptext481:
  3840                           psect	text481
  3841                           	file	"nrf24l01.c"
  3842                           	line	364
  3843                           	global	__size_of_vWriteNrf24l01
  3844  0033                     	__size_of_vWriteNrf24l01	equ	__end_of_vWriteNrf24l01-_vWriteNrf24l01
  3845                           	
  3846  0391                     _vWriteNrf24l01:	
  3847                           	opt	stack 5
  3848                           ; Regs used in _vWriteNrf24l01: [wreg-fsr0h+status,2+status,0+btemp+1+pclath+cstack]
  3849                           ;vWriteNrf24l01@ucCommand stored from wreg
  3850                           	line	366
  3851  0391  00F8               	movwf	(vWriteNrf24l01@ucCommand)
  3852                           	
  3853  0392                     l1253:	
  3854                           ;nrf24l01.c: 366: ucCommand += ucAddress & 0b00011111;
  3855  0392  0873               	movf	(vWriteNrf24l01@ucAddress),w
  3856  0393  391F               	andlw	01Fh
  3857  0394  00F7               	movwf	(??_vWriteNrf24l01+0)+0
  3858  0395  0877               	movf	(??_vWriteNrf24l01+0)+0,w
  3859  0396  07F8               	addwf	(vWriteNrf24l01@ucCommand),f
  3860                           	line	369
  3861                           	
  3862  0397                     l1255:	
  3863                           ;nrf24l01.c: 369: PORTCbits.RC1 = 0;
  3864  0397  1283               	bcf	status, 5	;RP0=0, select bank0
  3865  0398  1303               	bcf	status, 6	;RP1=0, select bank0
  3866  0399  1087               	bcf	(7),1	;volatile
  3867                           	line	370
  3868                           	
  3869  039A                     l1257:	
  3870                           ;nrf24l01.c: 370: ucTransferSpi(ucCommand);
  3871  039A  0878               	movf	(vWriteNrf24l01@ucCommand),w
  3872  039B  120A  118A  2283   	fcall	_ucTransferSpi
              120A  118A         
  3873                           	line	371
  3874                           ;nrf24l01.c: 371: while (ucLength-- > 0) {
  3875  03A0  2BB8               	goto	l1263
  3876                           	
  3877  03A1                     l209:	
  3878                           	line	372
  3879                           	
  3880  03A1                     l1259:	
  3881                           ;nrf24l01.c: 372: ucTransferSpi(*pucBuffer++);
  3882  03A1  0875               	movf	(vWriteNrf24l01@pucBuffer+1),w
  3883  03A2  1283               	bcf	status, 5	;RP0=0, select bank0
  3884  03A3  1303               	bcf	status, 6	;RP1=0, select bank0
  3885  03A4  00FF               	movwf	btemp+1
  3886  03A5  0874               	movf	(vWriteNrf24l01@pucBuffer),w
  3887  03A6  0084               	movwf	fsr0
  3888  03A7  120A  118A  2003   	fcall	stringtab
              120A  118A         
  3889  03AC  120A  118A  2283   	fcall	_ucTransferSpi
              120A  118A         
  3890                           	
  3891  03B1                     l1261:	
  3892  03B1  3001               	movlw	low(01h)
  3893  03B2  07F4               	addwf	(vWriteNrf24l01@pucBuffer),f
  3894  03B3  1803               	skipnc
  3895  03B4  0AF5               	incf	(vWriteNrf24l01@pucBuffer+1),f
  3896  03B5  3000               	movlw	high(01h)
  3897  03B6  07F5               	addwf	(vWriteNrf24l01@pucBuffer+1),f
  3898  03B7  2BB8               	goto	l1263
  3899                           	line	373
  3900                           	
  3901  03B8                     l208:	
  3902                           	line	371
  3903                           	
  3904  03B8                     l1263:	
  3905  03B8  3001               	movlw	low(01h)
  3906  03B9  02F6               	subwf	(vWriteNrf24l01@ucLength),f
  3907  03BA  0876               	movf	((vWriteNrf24l01@ucLength)),w
  3908  03BB  3AFF               	xorlw	0FFh
  3909  03BC  1D03               	skipz
  3910  03BD  2BBF               	goto	u981
  3911  03BE  2BC0               	goto	u980
  3912  03BF                     u981:
  3913  03BF  2BA1               	goto	l1259
  3914  03C0                     u980:
  3915                           	
  3916  03C0                     l210:	
  3917                           	line	374
  3918                           ;nrf24l01.c: 373: }
  3919                           ;nrf24l01.c: 374: PORTCbits.RC1 = 1;
  3920  03C0  1283               	bcf	status, 5	;RP0=0, select bank0
  3921  03C1  1303               	bcf	status, 6	;RP1=0, select bank0
  3922  03C2  1487               	bsf	(7),1	;volatile
  3923                           	line	375
  3924                           	
  3925  03C3                     l211:	
  3926  03C3  0008               	return
  3927                           	opt stack 0
  3928                           GLOBAL	__end_of_vWriteNrf24l01
  3929  03C4                     	__end_of_vWriteNrf24l01:
  3930                           	signat	_vWriteNrf24l01,16504
  3931                           	global	_ucReadNrf24l01Status
  3932                           
  3933 ;; *************** function _ucReadNrf24l01Status *****************
  3934 ;; Defined at:
  3935 ;;		line 393 in file "nrf24l01.c"
  3936 ;; Parameters:    Size  Location     Type
  3937 ;;		None
  3938 ;; Auto vars:     Size  Location     Type
  3939 ;;  ucStatus        1    4[COMMON] unsigned char 
  3940 ;; Return value:  Size  Location     Type
  3941 ;;                  1    wreg      unsigned char 
  3942 ;; Registers used:
  3943 ;;		wreg, pclath, cstack
  3944 ;; Tracked objects:
  3945 ;;		On entry : 0/0
  3946 ;;		On exit  : 0/0
  3947 ;;		Unchanged: 0/0
  3948 ;; Data sizes:     COMMON   BANK0   BANK1   BANK3   BANK2
  3949 ;;      Params:         0       0       0       0       0
  3950 ;;      Locals:         1       0       0       0       0
  3951 ;;      Temps:          1       0       0       0       0
  3952 ;;      Totals:         2       0       0       0       0
  3953 ;;Total ram usage:        2 bytes
  3954 ;; Hardware stack levels used:    1
  3955 ;; Hardware stack levels required when called:    1
  3956 ;; This function calls:
  3957 ;;		_ucTransferSpi
  3958 ;; This function is called by:
  3959 ;;		_ucNrf24l01TransmitPacket
  3960 ;;		_ucNrf24l01ReceivePacket
  3961 ;; This function uses a non-reentrant model
  3962 ;;
  3963                           psect	text482,local,class=CODE,delta=2,merge=1
  3964                           global __ptext482
  3965  025D                     __ptext482:
  3966                           psect	text482
  3967                           	file	"nrf24l01.c"
  3968                           	line	393
  3969                           	global	__size_of_ucReadNrf24l01Status
  3970  0012                     	__size_of_ucReadNrf24l01Status	equ	__end_of_ucReadNrf24l01Status-_ucReadNrf24l01Status
  3971                           	
  3972  025D                     _ucReadNrf24l01Status:	
  3973                           	opt	stack 5
  3974                           ; Regs used in _ucReadNrf24l01Status: [wreg+pclath+cstack]
  3975                           	line	397
  3976                           	
  3977  025D                     l1277:	
  3978                           ;nrf24l01.c: 394: unsigned char ucStatus;
  3979                           ;nrf24l01.c: 397: PORTCbits.RC1 = 0;
  3980  025D  1283               	bcf	status, 5	;RP0=0, select bank0
  3981  025E  1303               	bcf	status, 6	;RP1=0, select bank0
  3982  025F  1087               	bcf	(7),1	;volatile
  3983                           	line	398
  3984                           	
  3985  0260                     l1279:	
  3986                           ;nrf24l01.c: 398: ucStatus = ucTransferSpi(0b11111111);
  3987  0260  30FF               	movlw	(0FFh)
  3988  0261  120A  118A  2283   	fcall	_ucTransferSpi
              120A  118A         
  3989  0266  00F3               	movwf	(??_ucReadNrf24l01Status+0)+0
  3990  0267  0873               	movf	(??_ucReadNrf24l01Status+0)+0,w
  3991  0268  00F4               	movwf	(ucReadNrf24l01Status@ucStatus)
  3992                           	line	399
  3993                           	
  3994  0269                     l1281:	
  3995                           ;nrf24l01.c: 399: PORTCbits.RC1 = 1;
  3996  0269  1283               	bcf	status, 5	;RP0=0, select bank0
  3997  026A  1303               	bcf	status, 6	;RP1=0, select bank0
  3998  026B  1487               	bsf	(7),1	;volatile
  3999                           	line	401
  4000                           	
  4001  026C                     l1283:	
  4002                           ;nrf24l01.c: 401: return ucStatus;
  4003  026C  0874               	movf	(ucReadNrf24l01Status@ucStatus),w
  4004  026D  2A6E               	goto	l214
  4005                           	
  4006  026E                     l1285:	
  4007                           	line	402
  4008                           	
  4009  026E                     l214:	
  4010  026E  0008               	return
  4011                           	opt stack 0
  4012                           GLOBAL	__end_of_ucReadNrf24l01Status
  4013  026F                     	__end_of_ucReadNrf24l01Status:
  4014                           	signat	_ucReadNrf24l01Status,89
  4015                           	global	_ucReadNrf24l01FifoStatus
  4016                           
  4017 ;; *************** function _ucReadNrf24l01FifoStatus *****************
  4018 ;; Defined at:
  4019 ;;		line 420 in file "nrf24l01.c"
  4020 ;; Parameters:    Size  Location     Type
  4021 ;;		None
  4022 ;; Auto vars:     Size  Location     Type
  4023 ;;  ucFifoStatus    1   10[COMMON] unsigned char 
  4024 ;; Return value:  Size  Location     Type
  4025 ;;                  1    wreg      unsigned char 
  4026 ;; Registers used:
  4027 ;;		wreg, fsr0l, fsr0h, status,2, status,0, pclath, cstack
  4028 ;; Tracked objects:
  4029 ;;		On entry : 0/0
  4030 ;;		On exit  : 0/0
  4031 ;;		Unchanged: 0/0
  4032 ;; Data sizes:     COMMON   BANK0   BANK1   BANK3   BANK2
  4033 ;;      Params:         0       0       0       0       0
  4034 ;;      Locals:         1       0       0       0       0
  4035 ;;      Temps:          2       0       0       0       0
  4036 ;;      Totals:         3       0       0       0       0
  4037 ;;Total ram usage:        3 bytes
  4038 ;; Hardware stack levels used:    1
  4039 ;; Hardware stack levels required when called:    2
  4040 ;; This function calls:
  4041 ;;		_vReadNrf24l01
  4042 ;; This function is called by:
  4043 ;;		_ucNrf24l01ReceivePacket
  4044 ;; This function uses a non-reentrant model
  4045 ;;
  4046                           psect	text483,local,class=CODE,delta=2,merge=1
  4047                           global __ptext483
  4048  026F                     __ptext483:
  4049                           psect	text483
  4050                           	file	"nrf24l01.c"
  4051                           	line	420
  4052                           	global	__size_of_ucReadNrf24l01FifoStatus
  4053  0014                     	__size_of_ucReadNrf24l01FifoStatus	equ	__end_of_ucReadNrf24l01FifoStatus-_ucReadNrf24l0
                                 1FifoStatus
  4054                           	
  4055  026F                     _ucReadNrf24l01FifoStatus:	
  4056                           	opt	stack 4
  4057                           ; Regs used in _ucReadNrf24l01FifoStatus: [wreg-fsr0h+status,2+status,0+pclath+cstack]
  4058                           	line	423
  4059                           	
  4060  026F                     l1393:	
  4061                           ;nrf24l01.c: 421: unsigned char ucFifoStatus;
  4062                           ;nrf24l01.c: 423: vReadNrf24l01(0b00000000, 0x17, &ucFifoStatus, 1);
  4063  026F  3017               	movlw	(017h)
  4064  0270  00F8               	movwf	(??_ucReadNrf24l01FifoStatus+0)+0
  4065  0271  0878               	movf	(??_ucReadNrf24l01FifoStatus+0)+0,w
  4066  0272  00F3               	movwf	(?_vReadNrf24l01)
  4067  0273  307A               	movlw	(ucReadNrf24l01FifoStatus@ucFifoStatus)&0ffh
  4068  0274  00F9               	movwf	(??_ucReadNrf24l01FifoStatus+1)+0
  4069  0275  0879               	movf	(??_ucReadNrf24l01FifoStatus+1)+0,w
  4070  0276  00F4               	movwf	0+(?_vReadNrf24l01)+01h
  4071  0277  01F5               	clrf	0+(?_vReadNrf24l01)+02h
  4072  0278  1403               	bsf	status,0
  4073  0279  0DF5               	rlf	0+(?_vReadNrf24l01)+02h,f
  4074  027A  3000               	movlw	(0)
  4075  027B  120A  118A  2364   	fcall	_vReadNrf24l01
              120A  118A         
  4076                           	line	424
  4077                           	
  4078  0280                     l1395:	
  4079                           ;nrf24l01.c: 424: return ucFifoStatus;
  4080  0280  087A               	movf	(ucReadNrf24l01FifoStatus@ucFifoStatus),w
  4081  0281  2A82               	goto	l217
  4082                           	
  4083  0282                     l1397:	
  4084                           	line	425
  4085                           	
  4086  0282                     l217:	
  4087  0282  0008               	return
  4088                           	opt stack 0
  4089                           GLOBAL	__end_of_ucReadNrf24l01FifoStatus
  4090  0283                     	__end_of_ucReadNrf24l01FifoStatus:
  4091                           	signat	_ucReadNrf24l01FifoStatus,89
  4092                           	global	_vReadNrf24l01
  4093                           
  4094 ;; *************** function _vReadNrf24l01 *****************
  4095 ;; Defined at:
  4096 ;;		line 331 in file "nrf24l01.c"
  4097 ;; Parameters:    Size  Location     Type
  4098 ;;  ucCommand       1    wreg     unsigned char 
  4099 ;;  ucAddress       1    3[COMMON] unsigned char 
  4100 ;;  pucBuffer       1    4[COMMON] PTR unsigned char 
  4101 ;;		 -> ucReadNrf24l01FifoStatus@ucFifoStatus(1), vNrf24l01EnableRx@ucBuffer(1), vNrf24l01EnableTx@ucBuffer(1), main@ucD
       ata(1), 
  4102 ;;  ucLength        1    5[COMMON] unsigned char 
  4103 ;; Auto vars:     Size  Location     Type
  4104 ;;  ucCommand       1    7[COMMON] unsigned char 
  4105 ;; Return value:  Size  Location     Type
  4106 ;;		None               void
  4107 ;; Registers used:
  4108 ;;		wreg, fsr0l, fsr0h, status,2, status,0, pclath, cstack
  4109 ;; Tracked objects:
  4110 ;;		On entry : 0/0
  4111 ;;		On exit  : 0/0
  4112 ;;		Unchanged: 0/0
  4113 ;; Data sizes:     COMMON   BANK0   BANK1   BANK3   BANK2
  4114 ;;      Params:         3       0       0       0       0
  4115 ;;      Locals:         1       0       0       0       0
  4116 ;;      Temps:          1       0       0       0       0
  4117 ;;      Totals:         5       0       0       0       0
  4118 ;;Total ram usage:        5 bytes
  4119 ;; Hardware stack levels used:    1
  4120 ;; Hardware stack levels required when called:    1
  4121 ;; This function calls:
  4122 ;;		_ucTransferSpi
  4123 ;; This function is called by:
  4124 ;;		_vNrf24l01EnableTx
  4125 ;;		_vNrf24l01EnableRx
  4126 ;;		_ucNrf24l01ReceivePacket
  4127 ;;		_ucReadNrf24l01FifoStatus
  4128 ;; This function uses a non-reentrant model
  4129 ;;
  4130                           psect	text484,local,class=CODE,delta=2,merge=1
  4131                           global __ptext484
  4132  0364                     __ptext484:
  4133                           psect	text484
  4134                           	file	"nrf24l01.c"
  4135                           	line	331
  4136                           	global	__size_of_vReadNrf24l01
  4137  002D                     	__size_of_vReadNrf24l01	equ	__end_of_vReadNrf24l01-_vReadNrf24l01
  4138                           	
  4139  0364                     _vReadNrf24l01:	
  4140                           	opt	stack 5
  4141                           ; Regs used in _vReadNrf24l01: [wreg-fsr0h+status,2+status,0+pclath+cstack]
  4142                           ;vReadNrf24l01@ucCommand stored from wreg
  4143                           	line	333
  4144  0364  00F7               	movwf	(vReadNrf24l01@ucCommand)
  4145                           	
  4146  0365                     l1265:	
  4147                           ;nrf24l01.c: 333: ucCommand += ucAddress & 0b00011111;
  4148  0365  0873               	movf	(vReadNrf24l01@ucAddress),w
  4149  0366  391F               	andlw	01Fh
  4150  0367  00F6               	movwf	(??_vReadNrf24l01+0)+0
  4151  0368  0876               	movf	(??_vReadNrf24l01+0)+0,w
  4152  0369  07F7               	addwf	(vReadNrf24l01@ucCommand),f
  4153                           	line	336
  4154                           	
  4155  036A                     l1267:	
  4156                           ;nrf24l01.c: 336: PORTCbits.RC1 = 0;
  4157  036A  1283               	bcf	status, 5	;RP0=0, select bank0
  4158  036B  1303               	bcf	status, 6	;RP1=0, select bank0
  4159  036C  1087               	bcf	(7),1	;volatile
  4160                           	line	337
  4161                           	
  4162  036D                     l1269:	
  4163                           ;nrf24l01.c: 337: ucTransferSpi(ucCommand);
  4164  036D  0877               	movf	(vReadNrf24l01@ucCommand),w
  4165  036E  120A  118A  2283   	fcall	_ucTransferSpi
              120A  118A         
  4166                           	line	338
  4167                           ;nrf24l01.c: 338: while (ucLength-- > 0) {
  4168  0373  2B85               	goto	l1275
  4169                           	
  4170  0374                     l203:	
  4171                           	line	339
  4172                           	
  4173  0374                     l1271:	
  4174                           ;nrf24l01.c: 339: *pucBuffer++ = ucTransferSpi(0xff);
  4175  0374  30FF               	movlw	(0FFh)
  4176  0375  120A  118A  2283   	fcall	_ucTransferSpi
              120A  118A         
  4177  037A  00F6               	movwf	(??_vReadNrf24l01+0)+0
  4178  037B  0874               	movf	(vReadNrf24l01@pucBuffer),w
  4179  037C  0084               	movwf	fsr0
  4180  037D  0876               	movf	(??_vReadNrf24l01+0)+0,w
  4181  037E  1383               	bcf	status, 7	;select IRP bank0
  4182  037F  0080               	movwf	indf
  4183                           	
  4184  0380                     l1273:	
  4185  0380  3001               	movlw	(01h)
  4186  0381  00F6               	movwf	(??_vReadNrf24l01+0)+0
  4187  0382  0876               	movf	(??_vReadNrf24l01+0)+0,w
  4188  0383  07F4               	addwf	(vReadNrf24l01@pucBuffer),f
  4189  0384  2B85               	goto	l1275
  4190                           	line	340
  4191                           	
  4192  0385                     l202:	
  4193                           	line	338
  4194                           	
  4195  0385                     l1275:	
  4196  0385  3001               	movlw	low(01h)
  4197  0386  02F5               	subwf	(vReadNrf24l01@ucLength),f
  4198  0387  0875               	movf	((vReadNrf24l01@ucLength)),w
  4199  0388  3AFF               	xorlw	0FFh
  4200  0389  1D03               	skipz
  4201  038A  2B8C               	goto	u991
  4202  038B  2B8D               	goto	u990
  4203  038C                     u991:
  4204  038C  2B74               	goto	l1271
  4205  038D                     u990:
  4206                           	
  4207  038D                     l204:	
  4208                           	line	341
  4209                           ;nrf24l01.c: 340: }
  4210                           ;nrf24l01.c: 341: PORTCbits.RC1 = 1;
  4211  038D  1283               	bcf	status, 5	;RP0=0, select bank0
  4212  038E  1303               	bcf	status, 6	;RP1=0, select bank0
  4213  038F  1487               	bsf	(7),1	;volatile
  4214                           	line	342
  4215                           	
  4216  0390                     l205:	
  4217  0390  0008               	return
  4218                           	opt stack 0
  4219                           GLOBAL	__end_of_vReadNrf24l01
  4220  0391                     	__end_of_vReadNrf24l01:
  4221                           	signat	_vReadNrf24l01,16504
  4222                           	global	_ucTransferSpi
  4223                           
  4224 ;; *************** function _ucTransferSpi *****************
  4225 ;; Defined at:
  4226 ;;		line 64 in file "spi.c"
  4227 ;; Parameters:    Size  Location     Type
  4228 ;;  ucData          1    wreg     unsigned char 
  4229 ;; Auto vars:     Size  Location     Type
  4230 ;;  ucData          1    2[COMMON] unsigned char 
  4231 ;;  TempVar         1    1[COMMON] unsigned char 
  4232 ;; Return value:  Size  Location     Type
  4233 ;;                  1    wreg      unsigned char 
  4234 ;; Registers used:
  4235 ;;		wreg
  4236 ;; Tracked objects:
  4237 ;;		On entry : 0/0
  4238 ;;		On exit  : 0/0
  4239 ;;		Unchanged: 0/0
  4240 ;; Data sizes:     COMMON   BANK0   BANK1   BANK3   BANK2
  4241 ;;      Params:         0       0       0       0       0
  4242 ;;      Locals:         2       0       0       0       0
  4243 ;;      Temps:          1       0       0       0       0
  4244 ;;      Totals:         3       0       0       0       0
  4245 ;;Total ram usage:        3 bytes
  4246 ;; Hardware stack levels used:    1
  4247 ;; This function calls:
  4248 ;;		Nothing
  4249 ;; This function is called by:
  4250 ;;		_vReadNrf24l01
  4251 ;;		_vWriteNrf24l01
  4252 ;;		_ucReadNrf24l01Status
  4253 ;; This function uses a non-reentrant model
  4254 ;;
  4255                           psect	text485,local,class=CODE,delta=2,merge=1
  4256                           global __ptext485
  4257  0283                     __ptext485:
  4258                           psect	text485
  4259                           	file	"spi.c"
  4260                           	line	64
  4261                           	global	__size_of_ucTransferSpi
  4262  0017                     	__size_of_ucTransferSpi	equ	__end_of_ucTransferSpi-_ucTransferSpi
  4263                           	
  4264  0283                     _ucTransferSpi:	
  4265                           	opt	stack 5
  4266                           ; Regs used in _ucTransferSpi: [wreg]
  4267                           ;ucTransferSpi@ucData stored from wreg
  4268                           	line	66
  4269  0283  00F2               	movwf	(ucTransferSpi@ucData)
  4270                           	
  4271  0284                     l1139:	
  4272                           ;spi.c: 66: unsigned char TempVar = SSPBUF;
  4273  0284  1283               	bcf	status, 5	;RP0=0, select bank0
  4274  0285  1303               	bcf	status, 6	;RP1=0, select bank0
  4275  0286  0813               	movf	(19),w	;volatile
  4276  0287  00F0               	movwf	(??_ucTransferSpi+0)+0
  4277  0288  0870               	movf	(??_ucTransferSpi+0)+0,w
  4278  0289  00F1               	movwf	(ucTransferSpi@TempVar)
  4279                           	line	69
  4280                           	
  4281  028A                     l1141:	
  4282                           ;spi.c: 69: PIR1bits.SSPIF = 0;
  4283  028A  118C               	bcf	(12),3	;volatile
  4284                           	line	72
  4285                           ;spi.c: 72: SSPBUF = ucData;
  4286  028B  0872               	movf	(ucTransferSpi@ucData),w
  4287  028C  0093               	movwf	(19)	;volatile
  4288                           	line	75
  4289                           ;spi.c: 75: while(SSPSTATbits.BF == 0);
  4290  028D  2A8E               	goto	l231
  4291                           	
  4292  028E                     l232:	
  4293                           	
  4294  028E                     l231:	
  4295  028E  1683               	bsf	status, 5	;RP0=1, select bank1
  4296  028F  1303               	bcf	status, 6	;RP1=0, select bank1
  4297  0290  1C14               	btfss	(148)^080h,0	;volatile
  4298  0291  2A93               	goto	u581
  4299  0292  2A94               	goto	u580
  4300  0293                     u581:
  4301  0293  2A8E               	goto	l231
  4302  0294                     u580:
  4303  0294  2A95               	goto	l1143
  4304                           	
  4305  0295                     l233:	
  4306                           	line	78
  4307                           	
  4308  0295                     l1143:	
  4309                           ;spi.c: 78: return SSPBUF;
  4310  0295  1283               	bcf	status, 5	;RP0=0, select bank0
  4311  0296  1303               	bcf	status, 6	;RP1=0, select bank0
  4312  0297  0813               	movf	(19),w	;volatile
  4313  0298  2A99               	goto	l234
  4314                           	
  4315  0299                     l1145:	
  4316                           	line	79
  4317                           	
  4318  0299                     l234:	
  4319  0299  0008               	return
  4320                           	opt stack 0
  4321                           GLOBAL	__end_of_ucTransferSpi
  4322  029A                     	__end_of_ucTransferSpi:
  4323                           	signat	_ucTransferSpi,4217
  4324                           psect	text486,local,class=CODE,delta=2,merge=1
  4325                           global __ptext486
  4326  0000                     __ptext486:
  4327                           	global	btemp
  4328  007E                     	btemp set 07Eh
  4329                           
  4330                           	DABS	1,126,2	;btemp
  4331                           	global	wtemp0
  4332  007E                     	wtemp0 set btemp


Data Sizes:
    Strings     23
    Constant    0
    Data        0
    BSS         0
    Persistent  0
    Stack       0

Auto Spaces:
    Space          Size  Autos    Used
    COMMON           14     14      14
    BANK0            80     12      12
    BANK1            80      0       0
    BANK3            96      0       0
    BANK2            96      0       0

Pointer List with Targets:

    vWriteNrf24l01@pucBuffer	PTR const unsigned char  size(2) Largest target is 8192
		 -> ucNrf24l01ReceivePacket@ucStatus(BANK0[1]), ucNrf24l01TransmitPacket@ucStatus(COMMON[1]), vNrf24l01EnableRx@ucBuffer(COMMON[1]), vNrf24l01EnableTx@ucBuffer(COMMON[1]), 
		 -> vInitNrf24l01@aucBuffer(BANK0[5]), ROM(CODE[8192]), main@key_send(BANK0[1]), 

    vReadNrf24l01@pucBuffer	PTR unsigned char  size(1) Largest target is 1
		 -> ucReadNrf24l01FifoStatus@ucFifoStatus(COMMON[1]), vNrf24l01EnableRx@ucBuffer(COMMON[1]), vNrf24l01EnableTx@ucBuffer(COMMON[1]), main@ucData(BANK0[1]), 

    ucNrf24l01ReceivePacket@pucBuffer	PTR unsigned char  size(1) Largest target is 1
		 -> main@ucData(BANK0[1]), 

    ucNrf24l01TransmitPacket@pucBuffer	PTR const unsigned char  size(1) Largest target is 1
		 -> main@key_send(BANK0[1]), 

    LCD_putstr@csz_string	PTR unsigned char  size(1) Largest target is 9
		 -> STR_3(CODE[5]), STR_2(CODE[9]), STR_1(CODE[9]), 


Critical Paths under _main in COMMON

    _main->_ucNrf24l01ReceivePacket
    _keypad_wait->_keypad_read
    _LCD_putstr->_LCD_senddata
    _LCD_putchar->_LCD_senddata
    _LCD_senddata->_LCD_4bitsend
    _LCD_goto->_LCD_command
    _initialzie->_vInitNrf24l01
    _LCD_initialize->_LCD_command
    _LCD_command->_LCD_4bitsend
    _ucNrf24l01ReceivePacket->_ucReadNrf24l01FifoStatus
    _vNrf24l01EnableTx->_vWriteNrf24l01
    _ucNrf24l01TransmitPacket->_vWriteNrf24l01
    _vNrf24l01EnableRx->_vWriteNrf24l01
    _vInitNrf24l01->_vWriteNrf24l01
    _vWriteNrf24l01->_ucTransferSpi
    _ucReadNrf24l01Status->_ucTransferSpi
    _ucReadNrf24l01FifoStatus->_vReadNrf24l01
    _vReadNrf24l01->_ucTransferSpi

Critical Paths under _main in BANK0

    _initialzie->_vInitNrf24l01

Critical Paths under _main in BANK1

    None.

Critical Paths under _main in BANK3

    None.

Critical Paths under _main in BANK2

    None.

Call Graph Tables:

 ---------------------------------------------------------------------------------
 (Depth) Function   	        Calls       Base Space   Used Autos Params    Refs
 ---------------------------------------------------------------------------------
 (0) _main                                                 7     7      0    2891
                                              5 BANK0      7     7      0
                         _initialzie
            _ucNrf24l01ReceivePacket
                           _LCD_goto
                         _LCD_putstr
                        _LCD_putchar
                        _keypad_wait
                  _vNrf24l01EnableTx
           _ucNrf24l01TransmitPacket
                  _vNrf24l01EnableRx
                        _keypad_read
 ---------------------------------------------------------------------------------
 (1) _keypad_wait                                          2     2      0      46
                                              1 COMMON     2     2      0
                        _keypad_read
 ---------------------------------------------------------------------------------
 (1) _keypad_read                                          1     1      0       0
                                              0 COMMON     1     1      0
 ---------------------------------------------------------------------------------
 (1) _LCD_putstr                                           2     2      0     243
                                              4 COMMON     2     2      0
                       _LCD_senddata
 ---------------------------------------------------------------------------------
 (1) _LCD_putchar                                          1     1      0     220
                                              4 COMMON     1     1      0
                       _LCD_senddata
 ---------------------------------------------------------------------------------
 (2) _LCD_senddata                                         1     1      0     198
                                              3 COMMON     1     1      0
                       _LCD_4bitsend
 ---------------------------------------------------------------------------------
 (1) _LCD_goto                                             2     1      1     264
                                              4 COMMON     2     1      1
                        _LCD_command
 ---------------------------------------------------------------------------------
 (1) _initialzie                                           0     0      0     614
                           _vInitSpi
                      _vInitNrf24l01
                     _LCD_initialize
 ---------------------------------------------------------------------------------
 (2) _LCD_initialize                                       2     2      0     198
                                              4 COMMON     2     2      0
                        _LCD_command
 ---------------------------------------------------------------------------------
 (2) _LCD_command                                          1     1      0     198
                                              3 COMMON     1     1      0
                       _LCD_4bitsend
 ---------------------------------------------------------------------------------
 (3) _LCD_4bitsend                                         3     3      0     176
                                              0 COMMON     3     3      0
 ---------------------------------------------------------------------------------
 (1) _ucNrf24l01ReceivePacket                              7     6      1     546
                                             11 COMMON     3     2      1
                                              0 BANK0      4     4      0
           _ucReadNrf24l01FifoStatus
                      _vReadNrf24l01
               _ucReadNrf24l01Status
                     _vWriteNrf24l01
 ---------------------------------------------------------------------------------
 (1) _vNrf24l01EnableTx                                    2     2      0     274
                                              9 COMMON     2     2      0
                      _vReadNrf24l01
                     _vWriteNrf24l01
 ---------------------------------------------------------------------------------
 (1) _ucNrf24l01TransmitPacket                             4     3      1     271
                                              9 COMMON     4     3      1
                     _vWriteNrf24l01
               _ucReadNrf24l01Status
 ---------------------------------------------------------------------------------
 (1) _vNrf24l01EnableRx                                    2     2      0     274
                                              9 COMMON     2     2      0
                      _vReadNrf24l01
                     _vWriteNrf24l01
 ---------------------------------------------------------------------------------
 (2) _vInitSpi                                             0     0      0       0
 ---------------------------------------------------------------------------------
 (2) _vInitNrf24l01                                        8     8      0     416
                                              9 COMMON     3     3      0
                                              0 BANK0      5     5      0
                     _vWriteNrf24l01
 ---------------------------------------------------------------------------------
 (2) _vWriteNrf24l01                                       6     2      4     113
                                              3 COMMON     6     2      4
                      _ucTransferSpi
 ---------------------------------------------------------------------------------
 (2) _ucReadNrf24l01Status                                 2     2      0      46
                                              3 COMMON     2     2      0
                      _ucTransferSpi
 ---------------------------------------------------------------------------------
 (2) _ucReadNrf24l01FifoStatus                             3     3      0     159
                                              8 COMMON     3     3      0
                      _vReadNrf24l01
 ---------------------------------------------------------------------------------
 (2) _vReadNrf24l01                                        5     2      3     113
                                              3 COMMON     5     2      3
                      _ucTransferSpi
 ---------------------------------------------------------------------------------
 (3) _ucTransferSpi                                        3     3      0      23
                                              0 COMMON     3     3      0
 ---------------------------------------------------------------------------------
 Estimated maximum stack depth 3
 ---------------------------------------------------------------------------------

 Call Graph Graphs:

 _main (ROOT)
   _initialzie
     _vInitSpi
     _vInitNrf24l01
       _vWriteNrf24l01
         _ucTransferSpi
     _LCD_initialize
       _LCD_command
         _LCD_4bitsend
   _ucNrf24l01ReceivePacket
     _ucReadNrf24l01FifoStatus
       _vReadNrf24l01
         _ucTransferSpi
     _vReadNrf24l01
       _ucTransferSpi
     _ucReadNrf24l01Status
       _ucTransferSpi
     _vWriteNrf24l01
       _ucTransferSpi
   _LCD_goto
     _LCD_command
       _LCD_4bitsend
   _LCD_putstr
     _LCD_senddata
       _LCD_4bitsend
   _LCD_putchar
     _LCD_senddata
       _LCD_4bitsend
   _keypad_wait
     _keypad_read
   _vNrf24l01EnableTx
     _vReadNrf24l01
       _ucTransferSpi
     _vWriteNrf24l01
       _ucTransferSpi
   _ucNrf24l01TransmitPacket
     _vWriteNrf24l01
       _ucTransferSpi
     _ucReadNrf24l01Status
       _ucTransferSpi
   _vNrf24l01EnableRx
     _vReadNrf24l01
       _ucTransferSpi
     _vWriteNrf24l01
       _ucTransferSpi
   _keypad_read

 Address spaces:
Name               Size   Autos  Total    Cost      Usage
BITCOMMON            E      0       0       0        0.0%
EEDATA             100      0       0       0        0.0%
NULL                 0      0       0       0        0.0%
CODE                 0      0       0       0        0.0%
COMMON               E      E       E       1      100.0%
BITSFR0              0      0       0       1        0.0%
SFR0                 0      0       0       1        0.0%
BITSFR1              0      0       0       2        0.0%
SFR1                 0      0       0       2        0.0%
STACK                0      0       4       2        0.0%
ABS                  0      0       0       3        0.0%
BITBANK0            50      0       0       4        0.0%
BITSFR3              0      0       0       4        0.0%
SFR3                 0      0       0       4        0.0%
BANK0               50      C       C       5       15.0%
BITSFR2              0      0       0       5        0.0%
SFR2                 0      0       0       5        0.0%
BITBANK1            50      0       0       6        0.0%
BANK1               50      0       0       7        0.0%
BITBANK3            60      0       0       8        0.0%
BANK3               60      0       0       9        0.0%
BITBANK2            60      0       0      10        0.0%
BANK2               60      0       0      11        0.0%
DATA                 0      0       0      12        0.0%


HI-TECH Software PICC Macro Assembler V1.00 build 12136 
Symbol Table                                                                                   Fri Aug 03 15:28:58 2012

                      ?_vInitNrf24l01 0070                                     pc 0002  
            _ucNrf24l01TransmitPacket 040C                           _SSPSTATbits 0094  
                                  l21 0505                                    l30 0553  
                                  l22 0591                                    l31 055A  
                                  l23 050C                                    l32 0561  
                                  l24 0513                                    l40 031F  
                                  l33 0568                                    l25 051A  
                                  l41 032E                                    l34 057A  
                                  l26 052C                                    l42 0330  
                                  l35 0581                                    l27 0533  
                                  l43 032F                                    l36 0588  
                                  l28 053A                                    l44 033B  
                                  l37 058F                                    l29 0541  
                                  l45 033D                                    l70 04F0  
                                  l64 0243                                    l73 024E  
                                  l90 02B0                                    l82 0238  
                                  l67 0635                                    l76 02C4  
                                  l77 02B3                                    l78 02D1  
                                  l79 02D1                                    l88 02A8  
                                  l89 02B0                                    fsr 0004  
                      _vWriteNrf24l01 0391                        ?_vReadNrf24l01 0073  
                                 l202 0385                                   l210 03C0  
                                 l203 0374                                   l211 03C3  
                                 l204 038D                                   l205 0390  
                                 l214 026E                                   l150 0685  
                                 l231 028E                                   l151 0684  
                                 l232 028E                                   l208 03B8  
                                 l160 06F7                                   l152 067A  
                                 l233 0295                                   l217 0282  
                                 l209 03A1                                   l153 0683  
                                 l234 0299                                   l154 0682  
                                 l163 0363                                   l155 06E7  
                                 l180 07FF                                   l228 025C  
                                 l156 0686                                   l157 06F5  
                                 l149 063C                                   l190 0423  
                                 l158 06F6                                   l191 0428  
                                 l183 0319                                   l159 06F7  
                                 l192 0459                                   l193 045C  
                                 l186 02F5                                   l194 045C  
                                 l189 0423                                   l197 03EA  
                                 l198 03EC                                   l199 040B  
                                 _RA0 0028                                   _RA1 0029  
                                 _RA2 002A                                   _RA3 002B  
                                 _RB2 0032                                   _RA4 002C  
                                 _RB3 0033                                   _RA5 002D  
                                 _RB4 0034                                   _RB5 0035  
                                 _RB6 0036                                   _RB7 0037  
                                 _RC6 003E                                   _RC7 003F  
                                 u600 0509                                   u601 0508  
                                 u610 0510                                   u611 050F  
                                 u700 0565                                   u620 0517  
                                 u701 0564                                   u621 0516  
                                 u710 0577                                   u630 0529  
                                 u711 0576                                   u631 0528  
                                 u720 057E                                   u640 0530  
                                 u721 057D                                   u641 052F  
                                 u730 0585                                   u650 0537  
                                 u731 0584                                   u651 0536  
                                 u580 0294                                   u820 05C6  
                                 u804 05B7                                   u740 058C  
                                 u660 053E                                   u581 0293  
                                 u821 05C2                                   u741 058B  
                                 u661 053D                                   u910 0609  
                                 u670 0550                                   u590 0502  
                                 u911 0605                                   u815 05BA  
                                 u671 054F                                   u591 0501  
                                 u760 05A2                                   u680 0557  
                                 u905 05FD                                   u761 059E  
                                 u681 0556                                   u850 05D8  
                                 u834 05C9                                   u690 055E  
                                 u851 05D4                                   u755 0596  
                                 u691 055D                                   u940 061B  
                                 u924 060C                                   u941 0617  
                                 u845 05CC                                   u790 05B4  
                                 u774 05A5                                   u935 060F  
                                 u791 05B0                                   u960 0625  
                                 u880 05F7                                   u864 05DB  
                                 u961 0621                                   u881 05F3  
                                 u785 05A8                                   u954 061E  
                                 u875 05EB                                   u980 03C0  
                                 u981 03BF                                   u990 038D  
                                 u974 0628                                   u894 05FA  
                                 u991 038C                                   fsr0 0004  
                                 indf 0000                           ?_LCD_putstr 0070  
        __end_of_ucReadNrf24l01Status 026F                        ??_LCD_4bitsend 0070  
              vWriteNrf24l01@ucLength 0076                                  l1201 055E  
                                l1211 0571                                  l1203 0560  
                                l1141 028A                                  l1301 023D  
                                l1221 0585                                  l1213 0577  
                                l1205 0565                                  l1143 0295  
                                l1311 0307                                  l1303 0245  
                                l1231 0591                                  l1223 0587  
                                l1215 0579                                  l1207 0567  
                                l1151 04FC                                  l1145 0299  
                                l1137 024F                                  l1321 0428  
                                l1313 030B                                  l1241 05E8  
                                l1233 0593                                  l1401 0465  
                                l1305 0248                                  l1225 058C  
                                l1217 057E                                  l1209 056C  
                                l1161 0510                                  l1153 0502  
                                l1139 0284                                  l1331 0455  
                                l1323 0430                                  l1315 040D  
                                l1307 02F6                                  l1251 0632  
                                l1243 05FA                                  l1235 05DB  
                                l1411 0477                                  l1403 0471  
                                l1227 058E                                  l1219 0580  
                                l1171 0523                                  l1163 0512  
                                l1155 0504                                  l1147 04F1  
                                l1261 03B1                                  l1253 0392  
                                l1341 02D2                                  l1333 0457  
                                l1325 0441                                  l1317 0410  
                                l1309 02F9                                  l1245 060C  
                                l1237 05DC                                  l1421 0487  
                                l1413 0478                                  l1405 0474  
                                l1501 0344                                  l1229 058F  
                                l1181 0537                                  l1173 0529  
                                l1165 0517                                  l1157 0509  
                                l1149 04F7                                  l1271 0374  
                                l1263 03B8                                  l1255 0397  
                                l1351 06FA                                  l1343 02D5  
                                l1335 0458                                  l1327 044D  
                                l1319 041F                                  l1247 061E  
                                l1239 05E5                                  l1431 04A0  
                                l1423 0488                                  l1415 0479  
                                l1407 0475                                  l1511 034F  
                                l1503 0345                                  l1191 054A  
                                l1183 0539                                  l1175 052B  
                                l1167 0519                                  l1159 050B  
                                l1273 0380                                  l1265 0365  
                                l1281 0269                                  l1257 039A  
                                l1361 0759                                  l1353 0707  
                                l1345 02E3                                  l1329 0451  
                                l1337 0459                                  l1249 0628  
                                l1441 04B0                                  l1433 04A3  
                                l1425 0489                                  l1417 0483  
                                l1409 0476                                  l1521 0354  
                                l1513 0350                                  l1505 0346  
                                l1193 0550                                  l1185 053E  
                                l1177 0530                                  l1169 051E  
                                l1275 0385                                  l1267 036A  
                                l1283 026C                                  l1259 03A1  
                                l1371 0789                                  l1363 075E  
                                l1355 0713                                  l1347 02E4  
                                l1339 045B                                  l1451 04C2  
                                l1443 04BC                                  l1435 04A4  
                                l1427 048A                                  l1419 0486  
                                l1523 0359                                  l1515 0351  
                                l1507 0347                                  l1195 0552  
                                l1187 0540                                  l1179 0532  
                                l1291 0327                                  l1531 0642  
                                l1269 036D                                  l1285 026E  
                                l1277 025D                                  l1381 07C8  
                                l1373 079A                                  l1365 076E  
                                l1357 0735                                  l1349 02F2  
                                l1461 04EA                                  l1453 04CC  
                                l1445 04BF                                  l1437 04A5  
                                l1429 0494                                  l1525 035E  
                                l1517 0352                                  l1509 034C  
                                l1197 0557                                  l1189 0545  
                                l1293 0330                                  l1541 0668  
                                l1533 0650                                  l1279 0260  
                                l1391 07F6                                  l1383 07CE  
                                l1375 07A0                                  l1367 0773  
                                l1359 0747                                  l1455 04D8  
                                l1447 04C0                                  l1439 04A6  
                                l1519 0353                                  l1471 0232  
                                l1463 02B2                                  l1199 0559  
                                l1295 033B                                  l1287 031A  
                                l1551 0686                                  l1543 0670  
                                l1535 0654                                  l1527 0636  
                                l1393 026F                                  l1385 07DF  
                                l1377 07B1                                  l1369 0784  
                                l1481 03D1                                  l1457 04DE  
                                l1449 04C1                                  l1473 029B  
                                l1465 02B3                                  l1297 033D  
                                l1289 031F                                  l1561 06B2  
                                l1553 0690                                  l1545 0678  
                                l1537 065B                                  l1529 063C  
                                l1395 0280                                  l1387 07E5  
                                l1379 07B7                                  l1491 0407  
                                l1483 03D5                                  l1299 023A  
                                l1459 04E4                                  l1475 02A0  
                                l1467 02BF                                  l1571 06E1  
                                l1563 06B9                                  l1555 069D  
                                l1547 067A                                  l1539 0661  
                                l1397 0282                                  l1389 07F3  
                                l1493 040B                                  l1485 03E4  
                                l1477 02A8                                  l1469 02C4  
                                l1565 06BF                                  l1557 06A5  
                                l1549 0680                                  l1573 06E7  
                                l1487 03EC                                  l1479 03C7  
                                l1399 045D                                  l1495 033E  
                                l1567 06CE                                  l1559 06AC  
                                l1489 03F6                                  l1497 0342  
                                l1569 06D3                                  l1499 0343  
                                STR_1 0013                                  STR_2 001C  
                                STR_3 0025                          ?_LCD_command 0070  
                                u1000 032D                                  u1001 032C  
                                u1010 033A                                  u1011 0339  
                                u1020 0427                                  u1100 0678  
                                u1021 0426                                  u1101 0677  
                                u1030 0451                                  u1110 0680  
                                u1031 0450                                  u1111 067F  
                                u1040 0455                                  u1120 069A  
                                u1041 0454                                  u1121 0696  
                                u1050 02D0                                  u1051 02CF  
                                u1060 02A0                                  u1140 06F4  
                                u1061 029F                                  u1141 06F3  
                                u1070 03D5                                  u1134 069D  
                                u1071 03D4                                  u1207 056E  
                                u1080 0642                                  u1217 0461  
                                u1081 0641                                  u1090 0654  
                                u1307 05E0                                  u1227 046C  
                                u1317 062D                                  u1237 047E  
                                u1157 06A1                                  u1327 0700  
                                u1247 048F                                  u1167 06C7  
                                u1337 07FA                                  u1257 049B  
                                u1177 04F9                                  u1267 04AB  
                                u1187 0520                                  u1277 04B7  
                                u1197 0547                                  u1287 04C7  
                                u1297 04D3                                  _main 0636  
                                btemp 007E                                  start 0000  
                        ?_LCD_putchar 0070                        LCD_goto@column 0074  
             vWriteNrf24l01@ucAddress 0073                __end_of_vWriteNrf24l01 03C4  
             vWriteNrf24l01@ucCommand 0078               __size_of_LCD_initialize 0094  
                    __end_of_LCD_goto 02B1                                 ?_main 0070  
                               _PORTA 0005                                 _PORTB 0006  
                               _PORTC 0007                                 _TRISB 0086  
                               _TRISC 0087                          main@key_send 002A  
                        main@ucStatus 0029               vWriteNrf24l01@pucBuffer 0074  
                        ?_keypad_read 0070                          ?_keypad_wait 0070  
                       ?_LCD_senddata 0070                                 pclath 000A  
                               status 0003                                 wtemp0 007E  
                     ??_vInitNrf24l01 0079                           LCD_goto@row 0075  
                 __size_of_LCD_putstr 0021                          __end_of_main 06FA  
 ucNrf24l01ReceivePacket@ucFifoStatus 0021                       ?_vWriteNrf24l01 0073  
                     ??_vReadNrf24l01 0076      __size_of_ucNrf24l01ReceivePacket 0048  
    ucNrf24l01ReceivePacket@pucBuffer 0020             vNrf24l01EnableRx@ucBuffer 007A  
                              ??_main 0025                                _ADCON1 009F  
                      ??_LCD_senddata 0073             vNrf24l01EnableTx@ucBuffer 007A  
                              _TRISA0 0428                                _TRISA1 0429  
                              _TRISA2 042A                                _TRISA3 042B  
                              _TRISA4 042C                                _TRISA5 042D  
                              _SSPBUF 0013              _ucReadNrf24l01FifoStatus 026F  
                    __end_of_vInitSpi 025D                  _ucReadNrf24l01Status 025D  
                __end_of_LCD_4bitsend 0636                     LCD_putchar@c_data 0074  
              vInitNrf24l01@aucBuffer 0020                  __size_of_LCD_command 000B  
          ??_ucNrf24l01TransmitPacket 007A                             ?_LCD_goto 0074  
                      __pcstackCOMMON 0070   ucNrf24l01ReceivePacket@ucReturnCode 0023  
                __size_of_LCD_putchar 0008                 ?_ucReadNrf24l01Status 0070  
    ucNrf24l01TransmitPacket@ucLength 0079                        _LCD_initialize 045D  
    ucNrf24l01TransmitPacket@ucStatus 007C                   ucTransferSpi@ucData 0072  
                        ??_LCD_putstr 0074                __size_of_ucTransferSpi 0017  
               vReadNrf24l01@ucLength 0075                  __size_of_keypad_read 00A1  
                __size_of_keypad_wait 0024                            ??_LCD_goto 0075  
                          __pmaintext 0636                __end_of_LCD_initialize 04F1  
                     LCD_senddata@var 0073                    __end_of_LCD_putstr 02D2  
                __end_of_LCD_senddata 024F               _ucNrf24l01ReceivePacket 03C4  
        ucReadNrf24l01Status@ucStatus 0074                             ?_vInitSpi 0070  
                    ??_vWriteNrf24l01 0077                 __size_of_LCD_4bitsend 00A4  
                       _ucTransferSpi 0283                ??_ucReadNrf24l01Status 0073  
                     ?_LCD_initialize 0070                            _initialzie 033E  
                    LCD_4bitsend@data 0072                               main@key 0028  
                          ??_vInitSpi 0070                  end_of_initialization 022D  
                        _LCD_4bitsend 0592            ??_ucReadNrf24l01FifoStatus 0078  
    __end_of_ucNrf24l01TransmitPacket 045D                        ?_ucTransferSpi 0070  
               __end_of_vInitNrf24l01 0800             ??_ucNrf24l01ReceivePacket 007C  
               __end_of_vReadNrf24l01 0391                             _PORTBbits 0006  
                           _PORTCbits 0007                            main@ucData 002B  
               __size_of_LCD_senddata 000B                     __size_of_LCD_goto 0017  
                         ?_initialzie 0070                  ucTransferSpi@TempVar 0071  
                 start_initialization 022D       ucNrf24l01ReceivePacket@ucLength 007B  
     __end_of_ucNrf24l01ReceivePacket 040C       ucNrf24l01ReceivePacket@ucStatus 0022  
                   _vNrf24l01EnableRx 02D2                     _vNrf24l01EnableTx 02F6  
   ucNrf24l01TransmitPacket@pucBuffer 007B                         ??_LCD_command 0073  
                        _LCD_senddata 0244                    ?_vNrf24l01EnableRx 0070  
                  ?_vNrf24l01EnableTx 0070                       ??_ucTransferSpi 0070  
                       ??_LCD_putchar 0074                   ??_vNrf24l01EnableRx 0079  
                 ??_vNrf24l01EnableTx 0079  ucReadNrf24l01FifoStatus@ucFifoStatus 007A  
              vReadNrf24l01@ucAddress 0073     __size_of_ucNrf24l01TransmitPacket 0051  
           ?_ucNrf24l01TransmitPacket 0079                vReadNrf24l01@ucCommand 0077  
           __end_of_vNrf24l01EnableRx 02F6             __end_of_vNrf24l01EnableTx 031A  
                       __pcstackBANK0 0020                         ??_keypad_read 0070  
                       ??_keypad_wait 0071      __end_of_ucReadNrf24l01FifoStatus 0283  
              vReadNrf24l01@pucBuffer 0074                     __size_of_vInitSpi 000E  
                 __size_of_initialzie 0026                      ??_LCD_initialize 0074  
                 __end_of_LCD_command 0244                             __ptext470 029A  
                           __ptext471 033E                             __ptext480 06FA  
                           __ptext472 045D                             __ptext481 0391  
                           __ptext473 0239                             __ptext465 031A  
                           __ptext482 025D                             __ptext474 0592  
                           __ptext466 04F1                             __ptext483 026F  
                           __ptext475 03C4                             __ptext467 02B1  
                           __ptext484 0364                             __ptext476 02F6  
                           __ptext468 0231                             __ptext485 0283  
                           __ptext477 040C                             __ptext469 0244  
                           __ptext486 0000                             __ptext478 02D2  
                           __ptext479 024F                   __end_of_LCD_putchar 0239  
                           __pstrings 0003                   __end_of_keypad_read 0592  
                            _LCD_goto 029A                   __end_of_keypad_wait 033E  
                            _PIR1bits 000C         __size_of_ucReadNrf24l01Status 0012  
                         __stringbase 0012            __size_of_vNrf24l01EnableRx 0024  
          __size_of_vNrf24l01EnableTx 0024                           _LCD_command 0239  
                         _LCD_putchar 0231     __size_of_ucReadNrf24l01FifoStatus 0014  
           ?_ucReadNrf24l01FifoStatus 0070                          ??_initialzie 007C  
             __size_of_vWriteNrf24l01 0033                __size_of_vInitNrf24l01 0106  
                         _keypad_read 04F1                           _keypad_wait 031A  
                            _vInitSpi 024F                         __size_of_main 00C4  
            ?_ucNrf24l01ReceivePacket 007B                __size_of_vReadNrf24l01 002D  
                  __end_of_initialzie 0364                  LCD_putstr@csz_string 0075  
                          _LCD_putstr 02B1                 __end_of_ucTransferSpi 029A  
                           stringcode 000D                         _vInitNrf24l01 06FA  
                       _vReadNrf24l01 0364              keypad_wait@c_pressed_key 0072  
                            stringdir 000D                              stringtab 0003  
                       ?_LCD_4bitsend 0070                            _SSPCONbits 0014  
                      LCD_command@var 0073  
